(lp1
(ipassage
Passage
p2
(dp3
S'end_char_index'
p4
I76
sS'features'
p5
(dp6
S'averageWordLength'
p7
F5.125
sS'get_stopword_percentage'
p8
F0.52173913043478259
sS'get_avg_word_frequency_class'
p9
F4.1739130434782608
sS'averageSentenceLength'
p10
F18
sS'get_punctuation_percentage'
p11
F0
ssS'text'
p12
S'\xef\xbb\xbfI can see nothing in that proposition but the justifiable safeguarding by'
p13
sS'doc_name'
p14
S'suspicious-document00536.txt'
p15
sS'start_word_index'
p16
I0
sS'cluster_num'
p17
F0.45582762072266936
sS'atom_type'
p18
S'paragraph'
p19
sba(ipassage
Passage
p20
(dp21
g4
I146
sg5
(dp22
g7
F4.7199999999999998
sg8
F0.5
sg9
F4.041666666666667
sg10
F22
sg11
F0
ssg12
S'society of the necessary processes of its very life. There is nothing'
p23
sg14
g15
sg16
I77
sg17
F0.37162572714951331
sg18
g19
sba(ipassage
Passage
p24
(dp25
g4
I219
sg5
(dp26
g7
F4.4814814814814818
sg8
F0.57692307692307687
sg9
F3.7692307692307692
sg10
F22.5
sg11
F0
ssg12
S'arbitrary or unjust in it unless it be arbitrarily and unjustly done. It'
p27
sg14
g15
sg16
I147
sg17
F0.29860082455833881
sg18
g19
sba(ipassage
Passage
p28
(dp29
g4
I294
sg5
(dp30
g7
F4.4814814814814818
sg8
F0.61538461538461542
sg9
F3.3846153846153846
sg10
F30
sg11
F0
ssg12
S'can and should be done with a full and scrupulous regard for the interests'
p31
sg14
g15
sg16
I220
sg17
F0.30215427669767358
sg18
g19
sba(ipassage
Passage
p32
(dp33
g4
I367
sg5
(dp34
g7
F4.9333333333333336
sg8
F0.5
sg9
F4.2142857142857144
sg10
F30
sg11
F0
ssg12
S'and liberties of all concerned as well as for the permanent interests of'
p35
sg14
g15
sg16
I295
sg17
F0.432118469132514
sg18
g19
sba(ipassage
Passage
p36
(dp37
g4
I383
sg5
(dp38
g7
F7
sg8
F0
sg9
F8
sg10
F30
sg11
F0
ssg12
S'society itself.'
p39
sg14
g15
sg16
I368
sg17
F0.57943389167335424
sg18
g19
sba(ipassage
Passage
p40
(dp41
g4
I383
sg5
(dp42
g7
F5.2307692307692308
sg8
F0.41666666666666669
sg9
F4.166666666666667
sg10
F63.5
sg11
F0
ssg12
S''
sg14
g15
sg16
I383
sg17
F0.56488995430831634
sg18
g19
sba(ipassage
Passage
p43
(dp44
g4
I457
sg5
(dp45
g7
F4.7999999999999998
sg8
F0.45833333333333331
sg9
F3.7916666666666665
sg10
F97
sg11
F0
ssg12
S'Three matters of capital importance await the action of the Senate which'
p46
sg14
g15
sg16
I385
sg17
F0.41982004424552527
sg18
g19
sba(ipassage
Passage
p47
(dp48
g4
I528
sg5
(dp49
g7
F4.7999999999999998
sg8
F0.45833333333333331
sg9
F4.166666666666667
sg10
F97
sg11
F0
ssg12
S'have already been acted upon by the House of Representatives; the bill'
p50
sg14
g15
sg16
I458
sg17
F0.45815421236556159
sg18
g19
sba(ipassage
Passage
p51
(dp52
g4
I601
sg5
(dp53
g7
F4.8799999999999999
sg8
F0.54166666666666663
sg9
F4.375
sg10
F97
sg11
F0
ssg12
S'which seeks to extend greater freedom of combination to those engaged in'
p54
sg14
g15
sg16
I529
sg17
F0.44628625946005934
sg18
g19
sba(ipassage
Passage
p55
(dp56
g4
I675
sg5
(dp57
g7
F4.3928571428571432
sg8
F0.59259259259259256
sg9
F3.925925925925926
sg10
F97
sg11
F0.037037037037037035
ssg12
S'promoting the foreign commerce of the country than is now thought by some'
p58
sg14
g15
sg16
I602
sg17
F0.36797886077992437
sg18
g19
sba(ipassage
Passage
p59
(dp60
g4
I751
sg5
(dp61
g7
F4.068965517241379
sg8
F0.4642857142857143
sg9
F4.0714285714285712
sg10
F97
sg11
F0.035714285714285712
ssg12
S'to be legal under the terms of the laws against monopoly; the bill amending'
p62
sg14
g15
sg16
I676
sg17
F0.38923502834839646
sg18
g19
sba(ipassage
Passage
p63
(dp64
g4
I820
sg5
(dp65
g7
F4.666666666666667
sg8
F0.43478260869565216
sg9
F3.9565217391304346
sg10
F97
sg11
F0
ssg12
S'the present organic law of Porto Rico; and the bill proposing a more'
p66
sg14
g15
sg16
I752
sg17
F0.43562381639700698
sg18
g19
sba(ipassage
Passage
p67
(dp68
g4
I886
sg5
(dp69
g7
F5.7222222222222223
sg8
F0.35294117647058826
sg9
F4.5294117647058822
sg10
F97
sg11
F0
ssg12
S'thorough and systematic regulation of the expenditure of money in'
p70
sg14
g15
sg16
I821
sg17
F0.61841914946077958
sg18
g19
sba(ipassage
Passage
p71
(dp72
g4
I940
sg5
(dp73
g7
F5.875
sg8
F0.14285714285714285
sg9
F5.7142857142857144
sg10
F97
sg11
F0
ssg12
S'elections, commonly called the Corrupt Practices Act.'
p74
sg14
g15
sg16
I887
sg17
F0.63457621530228603
sg18
g19
sba(ipassage
Passage
p75
(dp76
g4
I940
sg5
(dp77
g7
F4.2666666666666666
sg8
F0.42857142857142855
sg9
F5
sg10
F43
sg11
F0
ssg12
S''
sg14
g15
sg16
I940
sg17
F0.55969539372304589
sg18
g19
sba(ipassage
Passage
p78
(dp79
g4
I1015
sg5
(dp80
g7
F4.9199999999999999
sg8
F0.45833333333333331
sg9
F5.083333333333333
sg10
F16
sg11
F0
ssg12
S'I need not labor my advice that these measures be enacted into law. Their'
p81
sg14
g15
sg16
I942
sg17
F0.6217071602472557
sg18
g19
sba(ipassage
Passage
p82
(dp83
g4
I1089
sg5
(dp84
g7
F5.5909090909090908
sg8
F0.42857142857142855
sg9
F5.0952380952380949
sg10
F16.5
sg11
F0
ssg12
S'urgency lies in the manifest circumstances which render their adoption at'
p85
sg14
g15
sg16
I1016
sg17
F0.67657974006083099
sg18
g19
sba(ipassage
Passage
p86
(dp87
g4
I1160
sg5
(dp88
g7
F5.2380952380952381
sg8
F0.45000000000000001
sg9
F4.1500000000000004
sg10
F16.5
sg11
F0
ssg12
S'this time not only opportune but necessary. Even delay would seriously'
p89
sg14
g15
sg16
I1090
sg17
F0.52858057392633107
sg18
g19
sba(ipassage
Passage
p90
(dp91
g4
I1220
sg5
(dp92
g7
F5
sg8
F0.66666666666666663
sg9
F2
sg10
F14
sg11
F0
ssg12
S'jeopard the interests of the country and of the Government.'
p93
sg14
g15
sg16
I1161
sg17
F0.40356480695148778
sg18
g19
sba(ipassage
Passage
p94
(dp95
g4
I1220
sg5
(dp96
g7
F5.3076923076923075
sg8
F0.5
sg9
F3.6666666666666665
sg10
F80.5
sg11
F0.083333333333333329
ssg12
S''
sg14
g15
sg16
I1220
sg17
F0.46101003810607949
sg18
g19
sba(ipassage
Passage
p97
(dp98
g4
I1291
sg5
(dp99
g7
F4.8399999999999999
sg8
F0.5
sg9
F3.75
sg10
F147
sg11
F0.041666666666666664
ssg12
S'Immediate passage of the bill to regulate the expenditure of money in'
p100
sg14
g15
sg16
I1222
sg17
F0.45093439954496445
sg18
g19
sba(ipassage
Passage
p101
(dp102
g4
I1367
sg5
(dp103
g7
F4.5185185185185182
sg8
F0.46153846153846156
sg9
F4.2307692307692308
sg10
F147
sg11
F0
ssg12
S'elections may seem to be less necessary than the immediate enactment of the'
p104
sg14
g15
sg16
I1292
sg17
F0.47322096753700787
sg18
g19
sba(ipassage
Passage
p105
(dp106
g4
I1439
sg5
(dp107
g7
F4.2857142857142856
sg8
F0.48148148148148145
sg9
F4.5185185185185182
sg10
F147
sg11
F0
ssg12
S'other measures to which I refer, because at least two years will elapse'
p108
sg14
g15
sg16
I1368
sg17
F0.47413505013096263
sg18
g19
sba(ipassage
Passage
p109
(dp110
g4
I1513
sg5
(dp111
g7
F4.7307692307692308
sg8
F0.44
sg9
F4.8799999999999999
sg10
F147
sg11
F0
ssg12
S'before another election in which Federal offices are to be filled; but it'
p112
sg14
g15
sg16
I1440
sg17
F0.51699473546400287
sg18
g19
sba(ipassage
Passage
p113
(dp114
g4
I1587
sg5
(dp115
g7
F4.8799999999999999
sg8
F0.54166666666666663
sg9
F4.125
sg10
F147
sg11
F0
ssg12
S'would greatly relieve the public mind if this important matter were dealt'
p116
sg14
g15
sg16
I1514
sg17
F0.46450142255139115
sg18
g19
sba(ipassage
Passage
p117
(dp118
g4
I1660
sg5
(dp119
g7
F5.125
sg8
F0.47826086956521741
sg9
F4.1304347826086953
sg10
F147
sg11
F0
ssg12
S'with while the circumstances and the dangers to the public morals of the'
p120
sg14
g15
sg16
I1588
sg17
F0.48775465568628101
sg18
g19
sba(ipassage
Passage
p121
(dp122
g4
I1734
sg5
(dp123
g7
F5.4782608695652177
sg8
F0.36363636363636365
sg9
F4.8636363636363633
sg10
F147
sg11
F0
ssg12
S'present method of obtaining and spending campaign funds stand clear under'
p124
sg14
g15
sg16
I1661
sg17
F0.55628847829143613
sg18
g19
sba(ipassage
Passage
p125
(dp126
g4
I1808
sg5
(dp127
g7
F4.6296296296296298
sg8
F0.53846153846153844
sg9
F3.6538461538461537
sg10
F147
sg11
F0
ssg12
S'recent observation, and the methods of expenditure can be frankly studied'
p128
sg14
g15
sg16
I1735
sg17
F0.4395224539029236
sg18
g19
sba(ipassage
Passage
p129
(dp130
g4
I1884
sg5
(dp131
g7
F4.96
sg8
F0.5
sg9
F4.333333333333333
sg10
F147
sg11
F0
ssg12
S'in the light of present experience; and a delay would have the further very'
p132
sg14
g15
sg16
I1809
sg17
F0.4856080342450701
sg18
g19
sba(ipassage
Passage
p133
(dp134
g4
I1956
sg5
(dp135
g7
F5.041666666666667
sg8
F0.52173913043478259
sg9
F4.5652173913043477
sg10
F147
sg11
F0
ssg12
S'serious disadvantage of postponing action until another election was at'
p136
sg14
g15
sg16
I1885
sg17
F0.49432073727526121
sg18
g19
sba(ipassage
Passage
p137
(dp138
g4
I2029
sg5
(dp139
g7
F3.9655172413793105
sg8
F0.6071428571428571
sg9
F4.1071428571428568
sg10
F81
sg11
F0
ssg12
S'hand and some special object connected with it might be thought to be in'
p140
sg14
g15
sg16
I1957
sg17
F0.32687145423113517
sg18
g19
sba(ipassage
Passage
p141
(dp142
g4
I2100
sg5
(dp143
g7
F4.5909090909090908
sg8
F0.47619047619047616
sg9
F4.7619047619047619
sg10
F81
sg11
F0
ssg12
S'the mind of those who urged it. Action can be taken now with facts for'
p144
sg14
g15
sg16
I2030
sg17
F0.50642594221577619
sg18
g19
sba(ipassage
Passage
p145
(dp146
g4
I2152
sg5
(dp147
g7
F6.4285714285714288
sg8
F0.33333333333333331
sg9
F4.666666666666667
sg10
F15
sg11
F0
ssg12
S'guidance and without suspicion of partisan purpose.'
p148
sg14
g15
sg16
I2101
sg17
F0.63975948737921318
sg18
g19
sba(ipassage
Passage
p149
(dp150
g4
I2152
sg5
(dp151
g7
F4.25
sg8
F0.46666666666666667
sg9
F4.2000000000000002
sg10
F25
sg11
F0.066666666666666666
ssg12
S''
sg14
g15
sg16
I2152
sg17
F0.43726388636430752
sg18
g19
sba(ipassage
Passage
p152
(dp153
g4
I2228
sg5
(dp154
g7
F4.4814814814814818
sg8
F0.5
sg9
F4.1923076923076925
sg10
F35
sg11
F0.038461538461538464
ssg12
S'I shall not argue at length the desirability of giving a freer hand in the'
p155
sg14
g15
sg16
I2154
sg17
F0.3637909004809633
sg18
g19
sba(ipassage
Passage
p156
(dp157
g4
I2301
sg5
(dp158
g7
F5.4347826086956523
sg8
F0.45454545454545453
sg9
F4.5
sg10
F27
sg11
F0
ssg12
S'matter of combined and concerted effort to those who shall undertake the'
p159
sg14
g15
sg16
I2229
sg17
F0.61731717122036556
sg18
g19
sba(ipassage
Passage
p160
(dp161
g4
I2376
sg5
(dp162
g7
F5.6086956521739131
sg8
F0.31818181818181818
sg9
F5
sg10
F27
sg11
F0
ssg12
S'essential enterprise of building up our export trade. That enterprise will'
p163
sg14
g15
sg16
I2302
sg17
F0.7619750342082231
sg18
g19
sba(ipassage
Passage
p164
(dp165
g4
I2451
sg5
(dp166
g7
F5.4761904761904763
sg8
F0.40000000000000002
sg9
F4.2000000000000002
sg10
F24
sg11
F0
ssg12
S'presently, will immediately assume, has indeed already assumed a magnitude'
p167
sg14
g15
sg16
I2377
sg17
F0.61126618853395709
sg18
g19
sba(ipassage
Passage
p168
(dp169
g4
I2510
sg5
(dp170
g7
F5.4285714285714288
sg8
F0.55000000000000004
sg9
F3.9500000000000002
sg10
F24
sg11
F0
ssg12
S'unprecedented in our experience. We have not the necessary'
p171
sg14
g15
sg16
I2452
sg17
F0.45003277653136348
sg18
g19
sba(ipassage
Passage
p172
(dp173
g4
I2585
sg5
(dp174
g7
F5.041666666666667
sg8
F0.47826086956521741
sg9
F4.6521739130434785
sg10
F29
sg11
F0
ssg12
S'instrumentalities for its prosecution; it is deemed to be doubtful whether'
p175
sg14
g15
sg16
I2511
sg17
F0.57840006891398155
sg18
g19
sba(ipassage
Passage
p176
(dp177
g4
I2654
sg5
(dp178
g7
F4.75
sg8
F0.36363636363636365
sg9
F5.2727272727272725
sg10
F29
sg11
F0
ssg12
S'they could be created upon an adequate scale under our present laws.'
p179
sg14
g15
sg16
I2586
sg17
F0.71679005703736764
sg18
g19
sba(ipassage
Passage
p180
(dp181
g4
I2654
sg5
(dp182
g7
F4.6428571428571432
sg8
F0.38461538461538464
sg9
F4.6923076923076925
sg10
F26.5
sg11
F0
ssg12
S''
sg14
g15
sg16
I2654
sg17
F0.64003660262979056
sg18
g19
sba(ipassage
Passage
p183
(dp184
g4
I2728
sg5
(dp185
g7
F5.166666666666667
sg8
F0.39130434782608697
sg9
F5.0434782608695654
sg10
F24
sg11
F0
ssg12
S'We should clear away all legal obstacles and create a basis of undoubted'
p186
sg14
g15
sg16
I2656
sg17
F0.74414778752169919
sg18
g19
sba(ipassage
Passage
p187
(dp188
g4
I2803
sg5
(dp189
g7
F4.8076923076923075
sg8
F0.44
sg9
F4.2400000000000002
sg10
F22.5
sg11
F0
ssg12
S'law for it which will give freedom without permitting unregulated license.'
p190
sg14
g15
sg16
I2729
sg17
F0.48977537267021276
sg18
g19
sba(ipassage
Passage
p191
(dp192
g4
I2878
sg5
(dp193
g7
F3.9523809523809526
sg8
F0.5
sg9
F4.2000000000000002
sg10
F21
sg11
F0
ssg12
S'The thing must be done now, because the opportunity is here and may escape'
p194
sg14
g15
sg16
I2804
sg17
F0.33741529402136061
sg18
g19
sba(ipassage
Passage
p195
(dp196
g4
I2906
sg5
(dp197
g7
F3.6666666666666665
sg8
F0.59999999999999998
sg9
F5.2000000000000002
sg10
F21
sg11
F0
ssg12
S'us if we hesitate or delay.'
p198
sg14
g15
sg16
I2879
sg17
F0.44474064610022118
sg18
g19
sba(ipassage
Passage
p199
(dp200
g4
I2906
sg5
(dp201
g7
F4.7857142857142856
sg8
F0.38461538461538464
sg9
F3.8461538461538463
sg10
F19
sg11
F0
ssg12
S''
sg14
g15
sg16
I2906
sg17
F0.47209083113779698
sg18
g19
sba(ipassage
Passage
p202
(dp203
g4
I2981
sg5
(dp204
g7
F4.875
sg8
F0.39130434782608697
sg9
F4.1304347826086953
sg10
F17.5
sg11
F0.043478260869565216
ssg12
S'The argument for the proposed amendments of the organic law of Porto Rico'
p205
sg14
g15
sg16
I2908
sg17
F0.48000847459251816
sg18
g19
sba(ipassage
Passage
p206
(dp207
g4
I3048
sg5
(dp208
g7
F4.833333333333333
sg8
F0.43478260869565216
sg9
F4
sg10
F15.666666666666666
sg11
F0.043478260869565216
ssg12
S'is brief and conclusive. The present laws governing the island and'
p209
sg14
g15
sg16
I2982
sg17
F0.44269041112678059
sg18
g19
sba(ipassage
Passage
p210
(dp211
g4
I3121
sg5
(dp212
g7
F5.3043478260869561
sg8
F0.54545454545454541
sg9
F4.0454545454545459
sg10
F15
sg11
F0
ssg12
S'regulating the rights and privileges of its people are not just. We have'
p213
sg14
g15
sg16
I3049
sg17
F0.45310734777354672
sg18
g19
sba(ipassage
Passage
p214
(dp215
g4
I3193
sg5
(dp216
g7
F5.3043478260869561
sg8
F0.5
sg9
F4.0454545454545459
sg10
F21.5
sg11
F0
ssg12
S'created expectations of extended privilege which we have not satisfied.'
p217
sg14
g15
sg16
I3122
sg17
F0.4761808572270485
sg18
g19
sba(ipassage
Passage
p218
(dp219
g4
I3266
sg5
(dp220
g7
F4.8799999999999999
sg8
F0.54166666666666663
sg9
F3.75
sg10
F31
sg11
F0
ssg12
S'There is uneasiness among the people of the island and even a suspicious'
p221
sg14
g15
sg16
I3194
sg17
F0.3315926276330976
sg18
g19
sba(ipassage
Passage
p222
(dp223
g4
I3340
sg5
(dp224
g7
F4.6923076923076925
sg8
F0.52000000000000002
sg9
F4.0800000000000001
sg10
F22
sg11
F0
ssg12
S'doubt with regard to our intentions concerning them which the adoption of'
p225
sg14
g15
sg16
I3267
sg17
F0.36065372064604073
sg18
g19
sba(ipassage
Passage
p226
(dp227
g4
I3414
sg5
(dp228
g7
F4.115384615384615
sg8
F0.47999999999999998
sg9
F4.4800000000000004
sg10
F17
sg11
F0
ssg12
S'the pending measure would happily remove. We do not doubt what we wish to'
p229
sg14
g15
sg16
I3341
sg17
F0.41086627096390327
sg18
g19
sba(ipassage
Passage
p230
(dp231
g4
I3473
sg5
(dp232
g7
F3.9166666666666665
sg8
F0.54545454545454541
sg9
F4.2727272727272725
sg10
F10
sg11
F0
ssg12
S'do in any essential particular. We ought to do it at once.'
p233
sg14
g15
sg16
I3415
sg17
F0.3622100200094206
sg18
g19
sba(ipassage
Passage
p234
(dp235
g4
I3473
sg5
(dp236
g7
F4
sg8
F0.53333333333333333
sg9
F3.4666666666666668
sg10
F38
sg11
F0
ssg12
S''
sg14
g15
sg16
I3473
sg17
F0.25543033226098105
sg18
g19
sba(ipassage
Passage
p237
(dp238
g4
I3548
sg5
(dp239
g7
F4.5925925925925926
sg8
F0.53846153846153844
sg9
F3.6538461538461537
sg10
F69
sg11
F0
ssg12
S'At the last session of the Congress a bill was passed by the Senate which'
p240
sg14
g15
sg16
I3475
sg17
F0.28309283017812331
sg18
g19
sba(ipassage
Passage
p241
(dp242
g4
I3624
sg5
(dp243
g7
F4.884615384615385
sg8
F0.52000000000000002
sg9
F3.7200000000000002
sg10
F69
sg11
F0
ssg12
S'provides for the promotion of vocational and industrial education, which is'
p244
sg14
g15
sg16
I3549
sg17
F0.33818374489872732
sg18
g19
sba(ipassage
Passage
p245
(dp246
g4
I3699
sg5
(dp247
g7
F4.8799999999999999
sg8
F0.41666666666666669
sg9
F4
sg10
F69
sg11
F0
ssg12
S'of vital importance to the whole country because it concerns a matter, too'
p248
sg14
g15
sg16
I3625
sg17
F0.46256211118212193
sg18
g19
sba(ipassage
Passage
p249
(dp250
g4
I3769
sg5
(dp251
g7
F5.6818181818181817
sg8
F0.38095238095238093
sg9
F4
sg10
F69
sg11
F0
ssg12
S'long neglected, upon which the thorough industrial preparation of the'
p252
sg14
g15
sg16
I3700
sg17
F0.5843743433911025
sg18
g19
sba(ipassage
Passage
p253
(dp254
g4
I3845
sg5
(dp255
g7
F5.4705882352941178
sg8
F0.375
sg9
F4.8125
sg10
F69
sg11
F0
ssg12
S'country for the critical years of economic development immediately ahead of'
p256
sg14
g15
sg16
I3770
sg17
F0.73294656980261252
sg18
g19
sba(ipassage
Passage
p257
(dp258
g4
I3879
sg5
(dp259
g7
F4.666666666666667
sg8
F0.40000000000000002
sg9
F5.7999999999999998
sg10
F69
sg11
F0
ssg12
S'us in very large measure depends.'
p260
sg14
g15
sg16
I3846
sg17
F0.6361733578134644
sg18
g19
sba(ipassage
Passage
p261
(dp262
g4
I3879
sg5
(dp263
g7
F4.5714285714285712
sg8
F0.46153846153846156
sg9
F4
sg10
F45
sg11
F0
ssg12
S''
sg14
g15
sg16
I3879
sg17
F0.3140306036528549
sg18
g19
sba(ipassage
Passage
p264
(dp265
g4
I3949
sg5
(dp266
g7
F4.7599999999999998
sg8
F0.41666666666666669
sg9
F4.458333333333333
sg10
F37.5
sg11
F0
ssg12
S'May I not urge its early and favorable consideration by the House of'
p267
sg14
g15
sg16
I3881
sg17
F0.57882728165433206
sg18
g19
sba(ipassage
Passage
p268
(dp269
g4
I4023
sg5
(dp270
g7
F4.4285714285714288
sg8
F0.48148148148148145
sg9
F4.0370370370370372
sg10
F37.5
sg11
F0
ssg12
S'Representatives and its early enactment into law? It contains plans which'
p271
sg14
g15
sg16
I3950
sg17
F0.28275727576865811
sg18
g19
sba(ipassage
Passage
p272
(dp273
g4
I4099
sg5
(dp274
g7
F4.4642857142857144
sg8
F0.55555555555555558
sg9
F3.7037037037037037
sg10
F54
sg11
F0
ssg12
S'affect all interests and all parts of the country, and I am sure that there'
p275
sg14
g15
sg16
I4024
sg17
F0.23336802405273804
sg18
g19
sba(ipassage
Passage
p276
(dp277
g4
I4175
sg5
(dp278
g7
F5.25
sg8
F0.43478260869565216
sg9
F4.9130434782608692
sg10
F54
sg11
F0
ssg12
S'is no legislation now pending before the Congress whose passage the country'
p279
sg14
g15
sg16
I4100
sg17
F0.72071489068344186
sg18
g19
sba(ipassage
Passage
p280
(dp281
g4
I4249
sg5
(dp282
g7
F4.6363636363636367
sg8
F0.47619047619047616
sg9
F4.5238095238095237
sg10
F54
sg11
F0.047619047619047616
ssg12
S'awaits with more thoughtful approval or greater impatience to see a great'
p283
sg14
g15
sg16
I4176
sg17
F0.44650102351977444
sg18
g19
sba(ipassage
Passage
p284
(dp285
g4
I4299
sg5
(dp286
g7
F4
sg8
F0.44444444444444442
sg9
F4.4444444444444446
sg10
F54
sg11
F0.1111111111111111
ssg12
S'and admirable thing set in the way of being done.'
p287
sg14
g15
sg16
I4250
sg17
F0.4716102530540115
sg18
g19
sba(ipassage
Passage
p288
(dp289
g4
I4299
sg5
(dp290
g7
F5.3076923076923075
sg8
F0.5
sg9
F4.75
sg10
F39.5
sg11
F0
ssg12
S''
sg14
g15
sg16
I4299
sg17
F0.59859970792663775
sg18
g19
sba(ipassage
Passage
p291
(dp292
g4
I4376
sg5
(dp293
g7
F4.615384615384615
sg8
F0.56000000000000005
sg9
F4.2400000000000002
sg10
F21
sg11
F0
ssg12
S'There are other matters already advanced to the stage of conference between'
p294
sg14
g15
sg16
I4301
sg17
F0.36452848447033309
sg18
g19
sba(ipassage
Passage
p295
(dp296
g4
I4446
sg5
(dp297
g7
F4.5
sg8
F0.52000000000000002
sg9
F4.6399999999999997
sg10
F21
sg11
F0
ssg12
S'the two houses of which it is not necessary that I should speak. Some'
p298
sg14
g15
sg16
I4377
sg17
F0.44641389722452174
sg18
g19
sba(ipassage
Passage
p299
(dp300
g4
I4519
sg5
(dp301
g7
F5.0625
sg8
F0.40000000000000002
sg9
F5.0666666666666664
sg10
F17
sg11
F0
ssg12
S'practicable basis of agreement concerning them will no doubt be found an'
p302
sg14
g15
sg16
I4447
sg17
F0.69872726740612245
sg18
g19
sba(ipassage
Passage
p303
(dp304
g4
I4543
sg5
(dp305
g7
F5
sg8
F0
sg9
F5.666666666666667
sg10
F17
sg11
F0
ssg12
S'action taken upon them.'
p306
sg14
g15
sg16
I4520
sg17
F0.61825471686320055
sg18
g19
sba(ipassage
Passage
p307
(dp308
g4
I4543
sg5
(dp309
g7
F4.1875
sg8
F0.40000000000000002
sg9
F3.6000000000000001
sg10
F37.5
sg11
F0.066666666666666666
ssg12
S''
sg14
g15
sg16
I4543
sg17
F0.42705757041251841
sg18
g19
sba(ipassage
Passage
p310
(dp311
g4
I4619
sg5
(dp312
g7
F4.2068965517241379
sg8
F0.42857142857142855
sg9
F3.6428571428571428
sg10
F58
sg11
F0.035714285714285712
ssg12
S'Inasmuch as this is, gentlemen, probably the last occasion I shall have to'
p313
sg14
g15
sg16
I4545
sg17
F0.33293275558933899
sg18
g19
sba(ipassage
Passage
p314
(dp315
g4
I4692
sg5
(dp316
g7
F4.7307692307692308
sg8
F0.52000000000000002
sg9
F4.1200000000000001
sg10
F58
sg11
F0
ssg12
S'address the Sixty-fourth Congress, I hope that you will permit me to say'
p317
sg14
g15
sg16
I4620
sg17
F0.32826734040124178
sg18
g19
sba(ipassage
Passage
p318
(dp319
g4
I4767
sg5
(dp320
g7
F5.208333333333333
sg8
F0.56521739130434778
sg9
F4.3478260869565215
sg10
F58
sg11
F0
ssg12
S'with what genuine pleasure and satisfaction I have co-operated with you in'
p321
sg14
g15
sg16
I4693
sg17
F0.44985893512511399
sg18
g19
sba(ipassage
Passage
p322
(dp323
g4
I4841
sg5
(dp324
g7
F4.7692307692307692
sg8
F0.56000000000000005
sg9
F4.1200000000000001
sg10
F34
sg11
F0
ssg12
S'the many measures of constructive policy with which you have enriched the'
p325
sg14
g15
sg16
I4768
sg17
F0.33919590299831259
sg18
g19
sba(ipassage
Passage
p326
(dp327
g4
I4917
sg5
(dp328
g7
F4.5925925925925926
sg8
F0.53846153846153844
sg9
F3.8076923076923075
sg10
F28.666666666666668
sg11
F0
ssg12
S'legislative annals of the country. It has been a privilege to labor in such'
p329
sg14
g15
sg16
I4842
sg17
F0.28754034558549618
sg18
g19
sba(ipassage
Passage
p330
(dp331
g4
I4992
sg5
(dp332
g7
F5.4736842105263159
sg8
F0.44444444444444442
sg9
F4.2222222222222223
sg10
F14
sg11
F0
ssg12
S'company. I take the liberty of congratulating you upon the completion of a'
p333
sg14
g15
sg16
I4918
sg17
F0.56549376930309958
sg18
g19
sba(ipassage
Passage
p334
(dp335
g4
I5040
sg5
(dp336
g7
F7
sg8
F0.40000000000000002
sg9
F4.7999999999999998
sg10
F18
sg11
F0
ssg12
S'record of rare serviceableness and distinction.'
p337
sg14
g15
sg16
I4993
sg17
F0.60264075049575583
sg18
g19
sba(ipassage
Passage
p338
(dp339
g4
I5040
sg5
(dp340
g7
F3.75
sg8
F0
sg9
F6
sg10
F25
sg11
F0
ssg12
S''
sg14
g15
sg16
I5040
sg17
F0.57918038428591756
sg18
g19
sba(ipassage
Passage
p341
(dp342
g4
I5045
sg5
(dp343
g7
F1
sg8
F0
sg9
F6
sg10
F32
sg11
F0
ssg12
S'***'
p344
sg14
g15
sg16
I5042
sg17
F0.51073130980243742
sg18
g19
sba(ipassage
Passage
p345
(dp346
g4
I5045
sg5
(dp347
g7
F3.8333333333333335
sg8
F0.40000000000000002
sg9
F3.7999999999999998
sg10
F32
sg11
F0
ssg12
S''
sg14
g15
sg16
I5045
sg17
F0.3543080755588166
sg18
g19
sba(ipassage
Passage
p348
(dp349
g4
I5073
sg5
(dp350
g7
F5
sg8
F0.33333333333333331
sg9
F4.5
sg10
F32
sg11
F0
ssg12
S'State of the Union Address'
p351
sg14
g15
sg16
I5047
sg17
F0.73753226116323256
sg18
g19
sba(ipassage
Passage
p352
(dp353
g4
I5088
sg5
(dp354
g7
F4.5
sg8
F0
sg9
F6
sg10
F32
sg11
F0
ssg12
S'Woodrow Wilson'
p355
sg14
g15
sg16
I5074
sg17
F0.60600022783317531
sg18
g19
sba(ipassage
Passage
p356
(dp357
g4
I5105
sg5
(dp358
g7
F3.5
sg8
F0
sg9
F5.333333333333333
sg10
F32
sg11
F0
ssg12
S'December 4, 1917'
p359
sg14
g15
sg16
I5089
sg17
F0.56555041888267843
sg18
g19
sba(ipassage
Passage
p360
(dp361
g4
I5105
sg5
(dp362
g7
F4.5
sg8
F0
sg9
F3.6000000000000001
sg10
F32
sg11
F0
ssg12
S''
sg14
g15
sg16
I5105
sg17
F0.54809757618301713
sg18
g19
sba(ipassage
Passage
p363
(dp364
g4
I5133
sg5
(dp365
g7
F4.5999999999999996
sg8
F0
sg9
F2.75
sg10
F32
sg11
F0
ssg12
S'GENTLEMEN OF THE CONGRESS:'
p366
sg14
g15
sg16
I5107
sg17
F0.51619079201073192
sg18
g19
sba(ipassage
Passage
p367
(dp368
g4
I5133
sg5
(dp369
g7
F4.2857142857142856
sg8
F0.30769230769230771
sg9
F4.9230769230769234
sg10
F32
sg11
F0.076923076923076927
ssg12
S''
sg14
g15
sg16
I5133
sg17
F0.50931141342356556
sg18
g19
sba(ipassage
Passage
p370
(dp371
g4
I5206
sg5
(dp372
g7
F4.9199999999999999
sg8
F0.375
sg9
F4.625
sg10
F23
sg11
F0.041666666666666664
ssg12
S'Eight months have elapsed since I last had the honor of addressing you.'
p373
sg14
g15
sg16
I5135
sg17
F0.54600827437702948
sg18
g19
sba(ipassage
Passage
p374
(dp375
g4
I5282
sg5
(dp376
g7
F4.8076923076923075
sg8
F0.44
sg9
F4.6799999999999997
sg10
F13
sg11
F0
ssg12
S'They have been months crowded with events of immense and grave significance'
p377
sg14
g15
sg16
I5207
sg17
F0.57744646761206653
sg18
g19
sba(ipassage
Passage
p378
(dp379
g4
I5357
sg5
(dp380
g7
F4.3214285714285712
sg8
F0.48148148148148145
sg9
F4.1111111111111107
sg10
F16.333333333333332
sg11
F0.037037037037037035
ssg12
S'for us. I shall not undertake to detail or even to summarize those events.'
p381
sg14
g15
sg16
I5283
sg17
F0.37597856679638686
sg18
g19
sba(ipassage
Passage
p382
(dp383
g4
I5431
sg5
(dp384
g7
F4.615384615384615
sg8
F0.56000000000000005
sg9
F3.8399999999999999
sg10
F26.5
sg11
F0.040000000000000001
ssg12
S'The practical particulars of the part we have played in them will be laid'
p385
sg14
g15
sg16
I5358
sg17
F0.34789456233670824
sg18
g19
sba(ipassage
Passage
p386
(dp387
g4
I5503
sg5
(dp388
g7
F4.6923076923076925
sg8
F0.40000000000000002
sg9
F4.0800000000000001
sg10
F26.5
sg11
F0
ssg12
S'before you in the reports of the executive departments. I shall discuss'
p389
sg14
g15
sg16
I5432
sg17
F0.47817709009081399
sg18
g19
sba(ipassage
Passage
p390
(dp391
g4
I5577
sg5
(dp392
g7
F4.7307692307692308
sg8
F0.35999999999999999
sg9
F4.1600000000000001
sg10
F30
sg11
F0
ssg12
S'only our present outlook upon these vast affairs, our present duties, and'
p393
sg14
g15
sg16
I5504
sg17
F0.55489819469672008
sg18
g19
sba(ipassage
Passage
p394
(dp395
g4
I5650
sg5
(dp396
g7
F5.0769230769230766
sg8
F0.33333333333333331
sg9
F4.833333333333333
sg10
F30
sg11
F0
ssg12
S'the immediate means of accomplishing the objects we shall hold always in'
p397
sg14
g15
sg16
I5578
sg17
F0.81399402267332477
sg18
g19
sba(ipassage
Passage
p398
(dp399
g4
I5656
sg5
(dp400
g7
F4.125
sg8
F0.33333333333333331
sg9
F3.8666666666666667
sg10
F24.666666666666668
sg11
F0
ssg12
S''
sg14
g15
sg16
I5656
sg17
F0.4446975528210782
sg18
g19
sba(ipassage
Passage
p401
(dp402
g4
I5733
sg5
(dp403
g7
F4.3214285714285712
sg8
F0.40740740740740738
sg9
F3.925925925925926
sg10
F22
sg11
F0
ssg12
S'I shall not go back to debate the causes of the war. The intolerable wrongs'
p404
sg14
g15
sg16
I5658
sg17
F0.39245588449616536
sg18
g19
sba(ipassage
Passage
p405
(dp406
g4
I5806
sg5
(dp407
g7
F4.6923076923076925
sg8
F0.40000000000000002
sg9
F4.5199999999999996
sg10
F32
sg11
F0.040000000000000001
ssg12
S'done and planned against us by the sinister masters of Germany have long'
p408
sg14
g15
sg16
I5734
sg17
F0.50087417173373461
sg18
g19
sba(ipassage
Passage
p409
(dp410
g4
I5881
sg5
(dp411
g7
F4.2142857142857144
sg8
F0.48148148148148145
sg9
F4.3703703703703702
sg10
F40
sg11
F0
ssg12
S'since become too grossly obvious and odious to every true American to need'
p412
sg14
g15
sg16
I5807
sg17
F0.34584635304058126
sg18
g19
sba(ipassage
Passage
p413
(dp414
g4
I5952
sg5
(dp415
g7
F4.1785714285714288
sg8
F0.55555555555555558
sg9
F4.0740740740740744
sg10
F40
sg11
F0
ssg12
S'to be rehearsed. But I shall ask you to consider again and with a very'
p416
sg14
g15
sg16
I5882
sg17
F0.24913291075119018
sg18
g19
sba(ipassage
Passage
p417
(dp418
g4
I6026
sg5
(dp419
g7
F4.1724137931034484
sg8
F0.6071428571428571
sg9
F3.4285714285714284
sg10
F48
sg11
F0
ssg12
S'grave scrutiny our objectives and the measures by which we mean to attain'
p420
sg14
g15
sg16
I5953
sg17
F0.26886426189057083
sg18
g19
sba(ipassage
Passage
p421
(dp422
g4
I6100
sg5
(dp423
g7
F4.0666666666666664
sg8
F0.37931034482758619
sg9
F3.8620689655172415
sg10
F37.5
sg11
F0
ssg12
S'them; for the purpose of discussion here in this place is action, and our'
p424
sg14
g15
sg16
I6027
sg17
F0.37719115540863268
sg18
g19
sba(ipassage
Passage
p425
(dp426
g4
I6174
sg5
(dp427
g7
F4.0999999999999996
sg8
F0.37931034482758619
sg9
F4.1379310344827589
sg10
F37.5
sg11
F0
ssg12
S'action must move straight toward definite ends. Our object is, of course,'
p428
sg14
g15
sg16
I6101
sg17
F0.41804426077840667
sg18
g19
sba(ipassage
Passage
p429
(dp430
g4
I6250
sg5
(dp431
g7
F3.903225806451613
sg8
F0.53333333333333333
sg9
F4
sg10
F23
sg11
F0
ssg12
S'to win the war; and we shall not slacken or suffer ourselves to be diverted'
p432
sg14
g15
sg16
I6175
sg17
F0.29987831865951164
sg18
g19
sba(ipassage
Passage
p433
(dp434
g4
I6324
sg5
(dp435
g7
F3.8695652173913042
sg8
F0.40909090909090912
sg9
F4.0909090909090908
sg10
F23
sg11
F0
ssg12
S'until it is won. But it is worth while asking and answering the question,'
p436
sg14
g15
sg16
I6251
sg17
F0.38677153666130415
sg18
g19
sba(ipassage
Passage
p437
(dp438
g4
I6360
sg5
(dp439
g7
F3.625
sg8
F0.2857142857142857
sg9
F4
sg10
F19
sg11
F0
ssg12
S'When shall we consider the war won?'
p440
sg14
g15
sg16
I6325
sg17
F0.46595921835857551
sg18
g19
sba(ipassage
Passage
p441
(dp442
g4
I6360
sg5
(dp443
g7
F4.1428571428571432
sg8
F0.46153846153846156
sg9
F4.2307692307692308
sg10
F16.5
sg11
F0
ssg12
S''
sg14
g15
sg16
I6360
sg17
F0.38311632562215742
sg18
g19
sba(ipassage
Passage
p444
(dp445
g4
I6431
sg5
(dp446
g7
F4.1785714285714288
sg8
F0.51851851851851849
sg9
F3.925925925925926
sg10
F22.5
sg11
F0.037037037037037035
ssg12
S'From one point of view it is not necessary to broach this fundamental'
p447
sg14
g15
sg16
I6362
sg17
F0.3303846564957123
sg18
g19
sba(ipassage
Passage
p448
(dp449
g4
I6506
sg5
(dp450
g7
F4.0344827586206895
sg8
F0.6428571428571429
sg9
F3.5
sg10
F22.5
sg11
F0.035714285714285712
ssg12
S'matter. I do not doubt that the American people know what the war is about'
p451
sg14
g15
sg16
I6432
sg17
F0.32721161952458483
sg18
g19
sba(ipassage
Passage
p452
(dp453
g4
I6577
sg5
(dp454
g7
F4.0588235294117645
sg8
F0.625
sg9
F3.875
sg10
F31
sg11
F0
ssg12
S'and what sort of an outcome they will regard as a realization of their'
p455
sg14
g15
sg16
I6507
sg17
F0.29046599488421176
sg18
g19
sba(ipassage
Passage
p456
(dp457
g4
I6592
sg5
(dp458
g7
F4
sg8
F0.5
sg9
F4
sg10
F31
sg11
F0
ssg12
S'purpose in it.'
p459
sg14
g15
sg16
I6578
sg17
F0.27717964340190415
sg18
g19
sba(ipassage
Passage
p460
(dp461
g4
I6592
sg5
(dp462
g7
F3.75
sg8
F0.40000000000000002
sg9
F4.1333333333333337
sg10
F17
sg11
F0
ssg12
S''
sg14
g15
sg16
I6592
sg17
F0.40697041757179586
sg18
g19
sba(ipassage
Passage
p463
(dp464
g4
I6665
sg5
(dp465
g7
F3.8999999999999999
sg8
F0.44827586206896552
sg9
F4.5172413793103452
sg10
F10.5
sg11
F0
ssg12
S'As a nation we are united in spirit and intention. I pay little heed to'
p466
sg14
g15
sg16
I6594
sg17
F0.43578065921422487
sg18
g19
sba(ipassage
Passage
p467
(dp468
g4
I6739
sg5
(dp469
g7
F4.384615384615385
sg8
F0.47999999999999998
sg9
F4.3200000000000003
sg10
F10.666666666666666
sg11
F0
ssg12
S'those who tell me otherwise. I hear the voices of dissent-who does not? I'
p470
sg14
g15
sg16
I6666
sg17
F0.41752308687543171
sg18
g19
sba(ipassage
Passage
p471
(dp472
g4
I6804
sg5
(dp473
g7
F4.9565217391304346
sg8
F0.5
sg9
F4.0909090909090908
sg10
F17
sg11
F0
ssg12
S'bear the criticism and the clamor of the noisily thoughtless and'
p474
sg14
g15
sg16
I6740
sg17
F0.43267654764689595
sg18
g19
sba(ipassage
Passage
p475
(dp476
g4
I6876
sg5
(dp477
g7
F4.8399999999999999
sg8
F0.375
sg9
F4.333333333333333
sg10
F19.666666666666668
sg11
F0.041666666666666664
ssg12
S'troublesome. I also see men here and there fling themselves in impotent'
p478
sg14
g15
sg16
I6805
sg17
F0.50775257057596668
sg18
g19
sba(ipassage
Passage
p479
(dp480
g4
I6949
sg5
(dp481
g7
F4.5185185185185182
sg8
F0.42307692307692307
sg9
F4.384615384615385
sg10
F23
sg11
F0.038461538461538464
ssg12
S'disloyalty against the calm, indomitable power of the Nation. I hear men'
p482
sg14
g15
sg16
I6877
sg17
F0.45308304000984684
sg18
g19
sba(ipassage
Passage
p483
(dp484
g4
I7024
sg5
(dp485
g7
F4.3571428571428568
sg8
F0.44444444444444442
sg9
F4.6296296296296298
sg10
F18
sg11
F0
ssg12
S'debate peace who understand neither its nature nor the way in which we may'
p486
sg14
g15
sg16
I6950
sg17
F0.49454477140232478
sg18
g19
sba(ipassage
Passage
p487
(dp488
g4
I7099
sg5
(dp489
g7
F4.3571428571428568
sg8
F0.44444444444444442
sg9
F4.1481481481481479
sg10
F14.25
sg11
F0
ssg12
S'attain it with uplifted eyes and unbroken spirits. But I know that none of'
p490
sg14
g15
sg16
I7025
sg17
F0.40746397117385624
sg18
g19
sba(ipassage
Passage
p491
(dp492
g4
I7174
sg5
(dp493
g7
F4.3461538461538458
sg8
F0.44
sg9
F4.3200000000000003
sg10
F10.666666666666666
sg11
F0
ssg12
S'these speaks for the Nation. They do not touch the heart of anything. They'
p494
sg14
g15
sg16
I7100
sg17
F0.44623707197368706
sg18
g19
sba(ipassage
Passage
p495
(dp496
g4
I7238
sg5
(dp497
g7
F4.333333333333333
sg8
F0.45454545454545453
sg9
F4.8181818181818183
sg10
F13
sg11
F0
ssg12
S'may safely be left to strut their uneasy hour and be forgotten.'
p498
sg14
g15
sg16
I7175
sg17
F0.51444689041919389
sg18
g19
sba(ipassage
Passage
p499
(dp500
g4
I7238
sg5
(dp501
g7
F4.333333333333333
sg8
F0.42857142857142855
sg9
F3.7142857142857144
sg10
F28
sg11
F0
ssg12
S''
sg14
g15
sg16
I7238
sg17
F0.33399835414019236
sg18
g19
sba(ipassage
Passage
p502
(dp503
g4
I7308
sg5
(dp504
g7
F3.7666666666666666
sg8
F0.58620689655172409
sg9
F3.3448275862068964
sg10
F43
sg11
F0
ssg12
S'But from another point of view I believe that it is necessary to say'
p505
sg14
g15
sg16
I7240
sg17
F0.28565787475827531
sg18
g19
sba(ipassage
Passage
p506
(dp507
g4
I7382
sg5
(dp508
g7
F3.838709677419355
sg8
F0.6333333333333333
sg9
F3.4333333333333331
sg10
F32
sg11
F0
ssg12
S'plainly what we here at the seat of action consider the war to be for and'
p509
sg14
g15
sg16
I7309
sg17
F0.30183433303549084
sg18
g19
sba(ipassage
Passage
p510
(dp511
g4
I7458
sg5
(dp512
g7
F4.0999999999999996
sg8
F0.51724137931034486
sg9
F3.3793103448275863
sg10
F32
sg11
F0
ssg12
S'what part we mean to play in the settlement of its searching issues. We are'
p513
sg14
g15
sg16
I7383
sg17
F0.27214590834806057
sg18
g19
sba(ipassage
Passage
p514
(dp515
g4
I7534
sg5
(dp516
g7
F4.0999999999999996
sg8
F0.48275862068965519
sg9
F3.2068965517241379
sg10
F32.5
sg11
F0
ssg12
S'the spokesmen of the American people, and they have a right to know whether'
p517
sg14
g15
sg16
I7459
sg17
F0.29911463015487244
sg18
g19
sba(ipassage
Passage
p518
(dp519
g4
I7609
sg5
(dp520
g7
F4.3928571428571432
sg8
F0.48148148148148145
sg9
F3.8148148148148149
sg10
F32.5
sg11
F0
ssg12
S'their purpose is ours. They desire peace by the overcoming of evil, by the'
p521
sg14
g15
sg16
I7535
sg17
F0.26983139381951876
sg18
g19
sba(ipassage
Passage
p522
(dp523
g4
I7684
sg5
(dp524
g7
F4.4444444444444446
sg8
F0.53846153846153844
sg9
F3.9230769230769229
sg10
F44
sg11
F0
ssg12
S'defeat once for all of the sinister forces that interrupt peace and render'
p525
sg14
g15
sg16
I7610
sg17
F0.22722446242878838
sg18
g19
sba(ipassage
Passage
p526
(dp527
g4
I7755
sg5
(dp528
g7
F4.4814814814814818
sg8
F0.53846153846153844
sg9
F4.2692307692307692
sg10
F49
sg11
F0
ssg12
S'it impossible, and they wish to know how closely our thought runs with'
p529
sg14
g15
sg16
I7685
sg17
F0.30107335278908676
sg18
g19
sba(ipassage
Passage
p530
(dp531
g4
I7831
sg5
(dp532
g7
F4.884615384615385
sg8
F0.52000000000000002
sg9
F4.4000000000000004
sg10
F49
sg11
F0.040000000000000001
ssg12
S'theirs and what action we propose. They are impatient with those who desire'
p533
sg14
g15
sg16
I7756
sg17
F0.42380481465903697
sg18
g19
sba(ipassage
Passage
p534
(dp535
g4
I7906
sg5
(dp536
g7
F4.2068965517241379
sg8
F0.6071428571428571
sg9
F4.3214285714285712
sg10
F54
sg11
F0.035714285714285712
ssg12
S'peace by any sort of compromise deeply and indignantly impatient--but they'
p537
sg14
g15
sg16
I7832
sg17
F0.33547868216340532
sg18
g19
sba(ipassage
Passage
p538
(dp539
g4
I7980
sg5
(dp540
g7
F4
sg8
F0.65517241379310343
sg9
F4
sg10
F54
sg11
F0
ssg12
S'will be equally impatient with us if we do not make it plain to them what'
p541
sg14
g15
sg16
I7907
sg17
F0.3020414663296816
sg18
g19
sba(ipassage
Passage
p542
(dp543
g4
I8056
sg5
(dp544
g7
F4.2222222222222223
sg8
F0.58823529411764708
sg9
F3.9411764705882355
sg10
F54
sg11
F0
ssg12
S'our objectives are and what we are planning for in seeking to make conquest'
p545
sg14
g15
sg16
I7981
sg17
F0.24734207978592365
sg18
g19
sba(ipassage
Passage
p546
(dp547
g4
I8074
sg5
(dp548
g7
F3.5
sg8
F0.33333333333333331
sg9
F5
sg10
F54
sg11
F0
ssg12
S'of peace by arms.'
p549
sg14
g15
sg16
I8057
sg17
F0.51658806654151967
sg18
g19
sba(ipassage
Passage
p550
(dp551
g4
I8074
sg5
(dp552
g7
F3.4444444444444446
sg8
F0.35294117647058826
sg9
F4.117647058823529
sg10
F116
sg11
F0
ssg12
S''
sg14
g15
sg16
I8074
sg17
F0.45036967564993147
sg18
g19
sba(ipassage
Passage
p553
(dp554
g4
I8147
sg5
(dp555
g7
F3.8999999999999999
sg8
F0.41379310344827586
sg9
F3.9655172413793105
sg10
F178
sg11
F0
ssg12
S'I believe that I speak for them when I say two things: First, that this'
p556
sg14
g15
sg16
I8076
sg17
F0.46963636380416429
sg18
g19
sba(ipassage
Passage
p557
(dp558
g4
I8220
sg5
(dp559
g7
F4.2962962962962967
sg8
F0.5
sg9
F3.8461538461538463
sg10
F178
sg11
F0
ssg12
S'intolerable thing of which the masters of Germany have shown us the ugly'
p560
sg14
g15
sg16
I8148
sg17
F0.4617179046371811
sg18
g19
sba(ipassage
Passage
p561
(dp562
g4
I8289
sg5
(dp563
g7
F4.1481481481481479
sg8
F0.46153846153846156
sg9
F4.0384615384615383
sg10
F178
sg11
F0
ssg12
S'face, this menace of combined intrigue and force which we now see so'
p564
sg14
g15
sg16
I8221
sg17
F0.46896514698196751
sg18
g19
sba(ipassage
Passage
p565
(dp566
g4
I8357
sg5
(dp567
g7
F4.1428571428571432
sg8
F0.44444444444444442
sg9
F3.6666666666666665
sg10
F178
sg11
F0.037037037037037035
ssg12
S'clearly as the German power, a thing without conscience or honor of'
p568
sg14
g15
sg16
I8290
sg17
F0.45757464754878935
sg18
g19
sba(ipassage
Passage
p569
(dp570
g4
I8430
sg5
(dp571
g7
F4
sg8
F0.51724137931034486
sg9
F3.7586206896551726
sg10
F178
sg11
F0.034482758620689655
ssg12
S'capacity for covenanted peace, must be crushed and, if it be not utterly'
p572
sg14
g15
sg16
I8358
sg17
F0.44859004478681752
sg18
g19
sba(ipassage
Passage
p573
(dp574
g4
I8504
sg5
(dp575
g7
F4.0999999999999996
sg8
F0.51724137931034486
sg9
F4
sg10
F178
sg11
F0
ssg12
S'brought to an end, at least shut out from the friendly intercourse of the'
p576
sg14
g15
sg16
I8431
sg17
F0.45976765779461209
sg18
g19
sba(ipassage
Passage
p577
(dp578
g4
I8580
sg5
(dp579
g7
F4.2068965517241379
sg8
F0.5357142857142857
sg9
F3.7142857142857144
sg10
F178
sg11
F0
ssg12
S'nations; and second, that when this thing and its power are indeed defeated'
p580
sg14
g15
sg16
I8505
sg17
F0.45300002109900639
sg18
g19
sba(ipassage
Passage
p581
(dp582
g4
I8653
sg5
(dp583
g7
F4.4444444444444446
sg8
F0.53846153846153844
sg9
F4.1923076923076925
sg10
F178
sg11
F0
ssg12
S'and the time comes that we can discuss peace when the German people have'
p584
sg14
g15
sg16
I8581
sg17
F0.46866977513107005
sg18
g19
sba(ipassage
Passage
p585
(dp586
g4
I8727
sg5
(dp587
g7
F4.3571428571428568
sg8
F0.59259259259259256
sg9
F3.6666666666666665
sg10
F178
sg11
F0
ssg12
S'spokesmen whose word we can believe and when those spokesmen are ready in'
p588
sg14
g15
sg16
I8654
sg17
F0.44918036190259497
sg18
g19
sba(ipassage
Passage
p589
(dp590
g4
I8803
sg5
(dp591
g7
F4
sg8
F0.58620689655172409
sg9
F3.1379310344827585
sg10
F178
sg11
F0
ssg12
S'the name of their people to accept the common judgment of the nations as to'
p592
sg14
g15
sg16
I8728
sg17
F0.43753972460596019
sg18
g19
sba(ipassage
Passage
p593
(dp594
g4
I8877
sg5
(dp595
g7
F3.870967741935484
sg8
F0.5
sg9
F3.2333333333333334
sg10
F178
sg11
F0
ssg12
S'what shall henceforth be the bases of law and of covenant for the life of'
p596
sg14
g15
sg16
I8804
sg17
F0.4444631132448239
sg18
g19
sba(ipassage
Passage
p597
(dp598
g4
I8953
sg5
(dp599
g7
F4.1578947368421053
sg8
F0.3888888888888889
sg9
F3.9444444444444446
sg10
F178
sg11
F0
ssg12
S'the world-we shall be willing and glad to pay the full price for peace, and'
p600
sg14
g15
sg16
I8878
sg17
F0.47755007897487367
sg18
g19
sba(ipassage
Passage
p601
(dp602
g4
I8974
sg5
(dp603
g7
F6
sg8
F0.5
sg9
F5
sg10
F178
sg11
F0
ssg12
S'pay it ungrudgingly.'
p604
sg14
g15
sg16
I8954
sg17
F0.52739615700475129
sg18
g19
sba(ipassage
Passage
p605
(dp606
g4
I8974
sg5
(dp607
g7
F5.0666666666666664
sg8
F0.35714285714285715
sg9
F4.2857142857142856
sg10
F71.333333333333329
sg11
F0
ssg12
S''
sg14
g15
sg16
I8974
sg17
F0.62270484483018551
sg18
g19
sba(ipassage
Passage
p608
(dp609
g4
I9051
sg5
(dp610
g7
F4.4814814814814818
sg8
F0.38461538461538464
sg9
F4.0384615384615383
sg10
F18
sg11
F0
ssg12
S'We know what that price will be. It will be full, impartial justice-justice'
p611
sg14
g15
sg16
I8976
sg17
F0.46103433477100214
sg18
g19
sba(ipassage
Passage
p612
(dp613
g4
I9122
sg5
(dp614
g7
F4.2727272727272725
sg8
F0.42857142857142855
sg9
F3.7619047619047619
sg10
F29
sg11
F0
ssg12
S'done at every point and to every nation that the final settlement must'
p615
sg14
g15
sg16
I9052
sg17
F0.32952752281587744
sg18
g19
sba(ipassage
Passage
p616
(dp617
g4
I9166
sg5
(dp618
g7
F4
sg8
F0.5
sg9
F3.75
sg10
F29
sg11
F0
ssg12
S'affect, our enemies as well as our friends.'
p619
sg14
g15
sg16
I9123
sg17
F0.26915681345082071
sg18
g19
sba(ipassage
Passage
p620
(dp621
g4
I9166
sg5
(dp622
g7
F3.7222222222222223
sg8
F0.47058823529411764
sg9
F3.5294117647058822
sg10
F21.666666666666668
sg11
F0
ssg12
S''
sg14
g15
sg16
I9166
sg17
F0.32146513840859864
sg18
g19
sba(ipassage
Passage
p623
(dp624
g4
I9241
sg5
(dp625
g7
F3.903225806451613
sg8
F0.46666666666666667
sg9
F3.7999999999999998
sg10
F18
sg11
F0
ssg12
S'You catch, with me, the voices of humanity that are in the air. They grow'
p626
sg14
g15
sg16
I9168
sg17
F0.32740539033631355
sg18
g19
sba(ipassage
Passage
p627
(dp628
g4
I9314
sg5
(dp629
g7
F4.2857142857142856
sg8
F0.44444444444444442
sg9
F3.7037037037037037
sg10
F30.5
sg11
F0
ssg12
S'daily more audible, more articulate, more persuasive, and they come from'
p630
sg14
g15
sg16
I9242
sg17
F0.30483549604812626
sg18
g19
sba(ipassage
Passage
p631
(dp632
g4
I9386
sg5
(dp633
g7
F4.1034482758620694
sg8
F0.42857142857142855
sg9
F4
sg10
F30.5
sg11
F0
ssg12
S'the hearts of men everywhere. They insist that the war shall not end in'
p634
sg14
g15
sg16
I9315
sg17
F0.34190062143613603
sg18
g19
sba(ipassage
Passage
p635
(dp636
g4
I9461
sg5
(dp637
g7
F4.7199999999999998
sg8
F0.5
sg9
F4.125
sg10
F40
sg11
F0
ssg12
S'vindictive action of any kind; that no nation or people shall be robbed or'
p638
sg14
g15
sg16
I9387
sg17
F0.34270778568560811
sg18
g19
sba(ipassage
Passage
p639
(dp640
g4
I9528
sg5
(dp641
g7
F5.2173913043478262
sg8
F0.54545454545454541
sg9
F4.0454545454545459
sg10
F31
sg11
F0
ssg12
S'punished because the irresponsible rulers of a single country have'
p642
sg14
g15
sg16
I9462
sg17
F0.42561402692506378
sg18
g19
sba(ipassage
Passage
p643
(dp644
g4
I9604
sg5
(dp645
g7
F4.666666666666667
sg8
F0.38461538461538464
sg9
F4.115384615384615
sg10
F31
sg11
F0.038461538461538464
ssg12
S'themselves done deep and abominable wrong. It is this thought that has been'
p646
sg14
g15
sg16
I9529
sg17
F0.45686663958201923
sg18
g19
sba(ipassage
Passage
p647
(dp648
g4
I9677
sg5
(dp649
g7
F4.75
sg8
F0.26666666666666666
sg9
F4.2000000000000002
sg10
F51.5
sg11
F0.066666666666666666
ssg12
S'expressed in the formula, "No annexations, no contributions, no punitive'
p650
sg14
g15
sg16
I9605
sg17
F0.50859154785015281
sg18
g19
sba(ipassage
Passage
p651
(dp652
g4
I9691
sg5
(dp653
g7
F6.5
sg8
F0
sg9
F5
sg10
F51.5
sg11
F0
ssg12
S'indemnities."'
p654
sg14
g15
sg16
I9678
sg17
F0.61604277034296751
sg18
g19
sba(ipassage
Passage
p655
(dp656
g4
I9691
sg5
(dp657
g7
F5.25
sg8
F0.45454545454545453
sg9
F5.0909090909090908
sg10
F81
sg11
F0
ssg12
S''
sg14
g15
sg16
I9691
sg17
F0.63098653968228635
sg18
g19
sba(ipassage
Passage
p658
(dp659
g4
I9765
sg5
(dp660
g7
F4.5769230769230766
sg8
F0.47999999999999998
sg9
F4.1200000000000001
sg10
F81
sg11
F0
ssg12
S'Just because this crude formula expresses the instinctive judgment as to'
p661
sg14
g15
sg16
I9693
sg17
F0.38195566124829394
sg18
g19
sba(ipassage
Passage
p662
(dp663
g4
I9836
sg5
(dp664
g7
F4.1071428571428568
sg8
F0.48148148148148145
sg9
F3.4814814814814814
sg10
F81
sg11
F0
ssg12
S'right of plain men everywhere, it has been made diligent use of by the'
p665
sg14
g15
sg16
I9766
sg17
F0.31392470412852308
sg18
g19
sba(ipassage
Passage
p666
(dp667
g4
I9907
sg5
(dp668
g7
F4.6799999999999997
sg8
F0.45833333333333331
sg9
F3.7916666666666665
sg10
F81
sg11
F0
ssg12
S'masters of German intrigue to lead the people of Russia astray and the'
p669
sg14
g15
sg16
I9837
sg17
F0.37410009805400424
sg18
g19
sba(ipassage
Passage
p670
(dp671
g4
I9978
sg5
(dp672
g7
F5.125
sg8
F0.47826086956521741
sg9
F4.7826086956521738
sg10
F81
sg11
F0
ssg12
S'people of every other country their agents could reach-in order that a'
p673
sg14
g15
sg16
I9908
sg17
F0.57360111648848422
sg18
g19
sba(ipassage
Passage
p674
(dp675
g4
I10054
sg5
(dp676
g7
F4.7692307692307692
sg8
F0.52000000000000002
sg9
F4.0800000000000001
sg10
F81
sg11
F0
ssg12
S'premature peace might be brought about before autocracy has been taught its'
p677
sg14
g15
sg16
I9979
sg17
F0.37945877455300675
sg18
g19
sba(ipassage
Passage
p678
(dp679
g4
I10128
sg5
(dp680
g7
F4.5882352941176467
sg8
F0.5625
sg9
F3.4375
sg10
F81
sg11
F0
ssg12
S'final and convincing lesson and the people of the world put in control of'
p681
sg14
g15
sg16
I10055
sg17
F0.32090340237559073
sg18
g19
sba(ipassage
Passage
p682
(dp683
g4
I10149
sg5
(dp684
g7
F6
sg8
F0.5
sg9
F6
sg10
F81
sg11
F0
ssg12
S'their own destinies.'
p685
sg14
g15
sg16
I10129
sg17
F0.60432254337191693
sg18
g19
sba(ipassage
Passage
p686
(dp687
g4
I10149
sg5
(dp688
g7
F3.5789473684210527
sg8
F0.61111111111111116
sg9
F4.2222222222222223
sg10
F54
sg11
F0.055555555555555552
ssg12
S''
sg14
g15
sg16
I10149
sg17
F0.38377481857679996
sg18
g19
sba(ipassage
Passage
p689
(dp690
g4
I10226
sg5
(dp691
g7
F3.3235294117647061
sg8
F0.60606060606060608
sg9
F3.9090909090909092
sg10
F19.5
sg11
F0.030303030303030304
ssg12
S'But the fact that a wrong use has been made of a just idea is no reason why'
p692
sg14
g15
sg16
I10151
sg17
F0.34296634753930288
sg18
g19
sba(ipassage
Passage
p693
(dp694
g4
I10297
sg5
(dp695
g7
F3.9310344827586206
sg8
F0.5
sg9
F4.1428571428571432
sg10
F21.333333333333332
sg11
F0
ssg12
S'a right use should not be made of it. It ought to be brought under the'
p696
sg14
g15
sg16
I10227
sg17
F0.32891877481434595
sg18
g19
sba(ipassage
Passage
p697
(dp698
g4
I10369
sg5
(dp699
g7
F4.3703703703703702
sg8
F0.5
sg9
F4.5
sg10
F18.5
sg11
F0
ssg12
S'patronage of its real friends. Let it be said again that autocracy must'
p700
sg14
g15
sg16
I10298
sg17
F0.4201532839193427
sg18
g19
sba(ipassage
Passage
p701
(dp702
g4
I10442
sg5
(dp703
g7
F4.3214285714285712
sg8
F0.48148148148148145
sg9
F4.4074074074074074
sg10
F25
sg11
F0
ssg12
S'first be shown the utter futility of its claim to power or leadership in'
p704
sg14
g15
sg16
I10370
sg17
F0.3959835922272788
sg18
g19
sba(ipassage
Passage
p705
(dp706
g4
I10518
sg5
(dp707
g7
F4.615384615384615
sg8
F0.47999999999999998
sg9
F4.4400000000000004
sg10
F25
sg11
F0
ssg12
S'the modern world. It is impossible to apply any standard of justice so long'
p708
sg14
g15
sg16
I10443
sg17
F0.45024774333409961
sg18
g19
sba(ipassage
Passage
p709
(dp710
g4
I10588
sg5
(dp711
g7
F4.3461538461538458
sg8
F0.56000000000000005
sg9
F4.2800000000000002
sg10
F21.5
sg11
F0
ssg12
S'as such forces are unchecked and undefeated as the present masters of'
p712
sg14
g15
sg16
I10519
sg17
F0.34251833130436199
sg18
g19
sba(ipassage
Passage
p713
(dp714
g4
I10657
sg5
(dp715
g7
F4.333333333333333
sg8
F0.53846153846153844
sg9
F4.3076923076923075
sg10
F26.666666666666668
sg11
F0
ssg12
S'Germany command. Not until that has been done can right be set up as'
p716
sg14
g15
sg16
I10589
sg17
F0.33566521531748633
sg18
g19
sba(ipassage
Passage
p717
(dp718
g4
I10731
sg5
(dp719
g7
F4.1428571428571432
sg8
F0.48148148148148145
sg9
F4.0370370370370372
sg10
F27.5
sg11
F0
ssg12
S'arbiter and peacemaker among the nations. But when that has been done-as,'
p720
sg14
g15
sg16
I10658
sg17
F0.30084490284568205
sg18
g19
sba(ipassage
Passage
p721
(dp722
g4
I10799
sg5
(dp723
g7
F3.6774193548387095
sg8
F0.5
sg9
F3.6000000000000001
sg10
F32.5
sg11
F0
ssg12
S'God willing, it assuredly will be-we shall at last be free to do an'
p724
sg14
g15
sg16
I10732
sg17
F0.29200081722700127
sg18
g19
sba(ipassage
Passage
p725
(dp726
g4
I10874
sg5
(dp727
g7
F3.935483870967742
sg8
F0.5
sg9
F3.2000000000000002
sg10
F32.5
sg11
F0
ssg12
S'unprecedented thing, and this is the time to avow our purpose to do it. We'
p728
sg14
g15
sg16
I10800
sg17
F0.29783426633206034
sg18
g19
sba(ipassage
Passage
p729
(dp730
g4
I10950
sg5
(dp731
g7
F4.2592592592592595
sg8
F0.5
sg9
F3.8076923076923075
sg10
F28
sg11
F0
ssg12
S'shall be free to base peace on generosity and justice, to the exclusions of'
p732
sg14
g15
sg16
I10875
sg17
F0.26714490164413379
sg18
g19
sba(ipassage
Passage
p733
(dp734
g4
I11015
sg5
(dp735
g7
F4.416666666666667
sg8
F0.45454545454545453
sg9
F4.4545454545454541
sg10
F28
sg11
F0
ssg12
S'all selfish claims to advantage even on the part of the victors.'
p736
sg14
g15
sg16
I10951
sg17
F0.44487010889541168
sg18
g19
sba(ipassage
Passage
p737
(dp738
g4
I11015
sg5
(dp739
g7
F5
sg8
F0.46153846153846156
sg9
F4.2307692307692308
sg10
F18.333333333333332
sg11
F0
ssg12
S''
sg14
g15
sg16
I11015
sg17
F0.49891395151335916
sg18
g19
sba(ipassage
Passage
p740
(dp741
g4
I11091
sg5
(dp742
g7
F4.1923076923076925
sg8
F0.52000000000000002
sg9
F3.7599999999999998
sg10
F13.5
sg11
F0
ssg12
S'Let there be no misunderstanding. Our present and immediate task is to win'
p743
sg14
g15
sg16
I11017
sg17
F0.31503685699312634
sg18
g19
sba(ipassage
Passage
p744
(dp745
g4
I11151
sg5
(dp746
g7
F4.0769230769230766
sg8
F0.40000000000000002
sg9
F3.6000000000000001
sg10
F28
sg11
F0
ssg12
S'the war and nothing shall turn us aside from it until it is'
p747
sg14
g15
sg16
I11092
sg17
F0.35147644196761857
sg18
g19
sba(ipassage
Passage
p748
(dp749
g4
I11221
sg5
(dp750
g7
F4.1724137931034484
sg8
F0.4642857142857143
sg9
F3.2142857142857144
sg10
F28
sg11
F0.035714285714285712
ssg12
S'accomplished. Every power and resource we possess, whether of men, of'
p751
sg14
g15
sg16
I11152
sg17
F0.33435222310806784
sg18
g19
sba(ipassage
Passage
p752
(dp753
g4
I11297
sg5
(dp754
g7
F4.2068965517241379
sg8
F0.5714285714285714
sg9
F3.7142857142857144
sg10
F26.5
sg11
F0.035714285714285712
ssg12
S'money, or of materials, is being devoted and will continue to be devoted to'
p755
sg14
g15
sg16
I11222
sg17
F0.30710658658917994
sg18
g19
sba(ipassage
Passage
p756
(dp757
g4
I11370
sg5
(dp758
g7
F4.9199999999999999
sg8
F0.45833333333333331
sg9
F4.666666666666667
sg10
F26.5
sg11
F0
ssg12
S'that purpose until it is achieved. Those who desire to bring peace about'
p759
sg14
g15
sg16
I11298
sg17
F0.58942567094230314
sg18
g19
sba(ipassage
Passage
p760
(dp761
g4
I11445
sg5
(dp762
g7
F4.4074074074074074
sg8
F0.42307692307692307
sg9
F4.115384615384615
sg10
F22
sg11
F0
ssg12
S'before that purpose is achieved I counsel to carry their advice elsewhere.'
p763
sg14
g15
sg16
I11371
sg17
F0.41371620933061792
sg18
g19
sba(ipassage
Passage
p764
(dp765
g4
I11516
sg5
(dp766
g7
F4.4814814814814818
sg8
F0.38461538461538464
sg9
F3.8846153846153846
sg10
F23.5
sg11
F0
ssg12
S'We will not entertain it. We shall regard the war as won only when the'
p767
sg14
g15
sg16
I11446
sg17
F0.42979309532754018
sg18
g19
sba(ipassage
Passage
p768
(dp769
g4
I11591
sg5
(dp770
g7
F5.04
sg8
F0.375
sg9
F4.041666666666667
sg10
F42
sg11
F0
ssg12
S'German people say to us, through properly accredited representatives, that'
p771
sg14
g15
sg16
I11517
sg17
F0.56436629466021915
sg18
g19
sba(ipassage
Passage
p772
(dp773
g4
I11665
sg5
(dp774
g7
F4.4074074074074074
sg8
F0.46153846153846156
sg9
F3.9230769230769229
sg10
F26.5
sg11
F0
ssg12
S'they are ready to agree to a settlement based upon justice and reparation'
p775
sg14
g15
sg16
I11592
sg17
F0.32378398770896866
sg18
g19
sba(ipassage
Passage
p776
(dp777
g4
I11737
sg5
(dp778
g7
F4.4444444444444446
sg8
F0.5
sg9
F4
sg10
F29.333333333333332
sg11
F0.038461538461538464
ssg12
S'of the wrongs their rulers have done. They have done a wrong to Belgium'
p779
sg14
g15
sg16
I11666
sg17
F0.34759866883388979
sg18
g19
sba(ipassage
Passage
p780
(dp781
g4
I11812
sg5
(dp782
g7
F4.7307692307692308
sg8
F0.52000000000000002
sg9
F4.0800000000000001
sg10
F23
sg11
F0.040000000000000001
ssg12
S'which must be repaired. They have established a power over other lands and'
p783
sg14
g15
sg16
I11738
sg17
F0.38740330524545602
sg18
g19
sba(ipassage
Passage
p784
(dp785
g4
I11883
sg5
(dp786
g7
F4.8399999999999999
sg8
F0.41666666666666669
sg9
F4.458333333333333
sg10
F35
sg11
F0
ssg12
S'peoples than their own--over the great empire of Austria-Hungary, over'
p787
sg14
g15
sg16
I11813
sg17
F0.59784861377929943
sg18
g19
sba(ipassage
Passage
p788
(dp789
g4
I11954
sg5
(dp790
g7
F5.615384615384615
sg8
F0.25
sg9
F5
sg10
F35
sg11
F0
ssg12
S'hitherto free Balkan states, over Turkey and within Asia-which must be'
p791
sg14
g15
sg16
I11884
sg17
F0.75089157576529331
sg18
g19
sba(ipassage
Passage
p792
(dp793
g4
I11968
sg5
(dp794
g7
F4.5294117647058822
sg8
F0.375
sg9
F4.25
sg10
F30
sg11
F0
ssg12
S''
sg14
g15
sg16
I11968
sg17
F0.51929817997168637
sg18
g19
sba(ipassage
Passage
p795
(dp796
g4
I12045
sg5
(dp797
g7
F3.875
sg8
F0.45161290322580644
sg9
F4.4838709677419351
sg10
F23
sg11
F0
ssg12
S"Germany's success by skill, by industry, by knowledge, by enterprise we did"
p798
sg14
g15
sg16
I11970
sg17
F0.41051722178595657
sg18
g19
sba(ipassage
Passage
p799
(dp800
g4
I12119
sg5
(dp801
g7
F3.870967741935484
sg8
F0.43333333333333335
sg9
F4.1333333333333337
sg10
F29.333333333333332
sg11
F0
ssg12
S'not grudge or oppose, but admired, rather. She had built up for herself a'
p802
sg14
g15
sg16
I12046
sg17
F0.35798812651946676
sg18
g19
sba(ipassage
Passage
p803
(dp804
g4
I12193
sg5
(dp805
g7
F4.4285714285714288
sg8
F0.44444444444444442
sg9
F3.7037037037037037
sg10
F31.5
sg11
F0
ssg12
S'real empire of trade and influence, secured by the peace of the world. We'
p806
sg14
g15
sg16
I12120
sg17
F0.31358942029431885
sg18
g19
sba(ipassage
Passage
p807
(dp808
g4
I12269
sg5
(dp809
g7
F4.0333333333333332
sg8
F0.55172413793103448
sg9
F3.9655172413793105
sg10
F42
sg11
F0
ssg12
S'were content to abide by the rivalries of manufacture, science and commerce'
p810
sg14
g15
sg16
I12194
sg17
F0.23904529741582278
sg18
g19
sba(ipassage
Passage
p811
(dp812
g4
I12342
sg5
(dp813
g7
F3.6451612903225805
sg8
F0.6333333333333333
sg9
F3.7000000000000002
sg10
F49.5
sg11
F0
ssg12
S'that were involved for us in her success, and stand or fall as we had or'
p814
sg14
g15
sg16
I12270
sg17
F0.29892338579325339
sg18
g19
sba(ipassage
Passage
p815
(dp816
g4
I12412
sg5
(dp817
g7
F4.3703703703703702
sg8
F0.57692307692307687
sg9
F4.3461538461538458
sg10
F49.5
sg11
F0
ssg12
S'did not have the brains and the initiative to surpass her. But at the'
p818
sg14
g15
sg16
I12343
sg17
F0.3118272757326534
sg18
g19
sba(ipassage
Passage
p819
(dp820
g4
I12487
sg5
(dp821
g7
F4.3571428571428568
sg8
F0.55555555555555558
sg9
F4.4814814814814818
sg10
F57
sg11
F0
ssg12
S'moment when she had conspicuously won her triumphs of peace she threw them'
p822
sg14
g15
sg16
I12413
sg17
F0.34674583913910123
sg18
g19
sba(ipassage
Passage
p823
(dp824
g4
I12561
sg5
(dp825
g7
F4.2758620689655169
sg8
F0.5
sg9
F3.8214285714285716
sg10
F57
sg11
F0
ssg12
S'away, to establish in their stead what the world will no longer permit to'
p826
sg14
g15
sg16
I12488
sg17
F0.21963557804095307
sg18
g19
sba(ipassage
Passage
p827
(dp828
g4
I12637
sg5
(dp829
g7
F4.4285714285714288
sg8
F0.44444444444444442
sg9
F4.5185185185185182
sg10
F32.5
sg11
F0
ssg12
S'be established, military and political domination by arms, by which to oust'
p830
sg14
g15
sg16
I12562
sg17
F0.47287589143373721
sg18
g19
sba(ipassage
Passage
p831
(dp832
g4
I12711
sg5
(dp833
g7
F4.2142857142857144
sg8
F0.40740740740740738
sg9
F4.5555555555555554
sg10
F43
sg11
F0
ssg12
S'where she could not excel the rivals she most feared and hated. The peace'
p834
sg14
g15
sg16
I12638
sg17
F0.48650888894153654
sg18
g19
sba(ipassage
Passage
p835
(dp836
g4
I12783
sg5
(dp837
g7
F4.6923076923076925
sg8
F0.35999999999999999
sg9
F4.5199999999999996
sg10
F36
sg11
F0.040000000000000001
ssg12
S'we make must remedy that wrong. It must deliver the once fair lands and'
p838
sg14
g15
sg16
I12712
sg17
F0.52687850019735494
sg18
g19
sba(ipassage
Passage
p839
(dp840
g4
I12859
sg5
(dp841
g7
F4.75
sg8
F0.43478260869565216
sg9
F3.7391304347826089
sg10
F64
sg11
F0.043478260869565216
ssg12
S'happy peoples of Belgium and Northern France from the Prussian conquest and'
p842
sg14
g15
sg16
I12784
sg17
F0.39993669431497381
sg18
g19
sba(ipassage
Passage
p843
(dp844
g4
I12920
sg5
(dp845
g7
F4.4000000000000004
sg8
F0.41666666666666669
sg9
F3
sg10
F64
sg11
F0
ssg12
S'the Prussian menace, but it must deliver also the peoples of'
p846
sg14
g15
sg16
I12860
sg17
F0.35628345950819751
sg18
g19
sba(ipassage
Passage
p847
(dp848
g4
I12991
sg5
(dp849
g7
F4.333333333333333
sg8
F0.5
sg9
F2.8461538461538463
sg10
F64
sg11
F0.038461538461538464
ssg12
S'Austria-Hungary, the peoples of the Balkans and the peoples of Turkey,'
p850
sg14
g15
sg16
I12921
sg17
F0.34756377588856363
sg18
g19
sba(ipassage
Passage
p851
(dp852
g4
I13061
sg5
(dp853
g7
F5.0526315789473681
sg8
F0.44444444444444442
sg9
F3.9444444444444446
sg10
F64
sg11
F0.055555555555555552
ssg12
S'alike in Europe and Asia, from the impudent and alien dominion of the'
p854
sg14
g15
sg16
I12992
sg17
F0.45109723796098145
sg18
g19
sba(ipassage
Passage
p855
(dp856
g4
I13105
sg5
(dp857
g7
F7.7999999999999998
sg8
F0.25
sg9
F5.5
sg10
F64
sg11
F0
ssg12
S'Prussian military and commercial autocracy.'
p858
sg14
g15
sg16
I13062
sg17
F0.59614984467920762
sg18
g19
sba(ipassage
Passage
p859
(dp860
g4
I13105
sg5
(dp861
g7
F3.2380952380952381
sg8
F0.55000000000000004
sg9
F3.1499999999999999
sg10
F45.5
sg11
F0.050000000000000003
ssg12
S''
sg14
g15
sg16
I13105
sg17
F0.36479722994004277
sg18
g19
sba(ipassage
Passage
p862
(dp863
g4
I13181
sg5
(dp864
g7
F3.6666666666666665
sg8
F0.5625
sg9
F3.75
sg10
F22.5
sg11
F0.03125
ssg12
S'We owe it, however, to ourselves, to say that we do not wish in any way to'
p865
sg14
g15
sg16
I13107
sg17
F0.31328783067674015
sg18
g19
sba(ipassage
Passage
p866
(dp867
g4
I13257
sg5
(dp868
g7
F4.666666666666667
sg8
F0.57692307692307687
sg9
F4.2307692307692308
sg10
F19.333333333333332
sg11
F0
ssg12
S'impair or to rearrange the Austro-Hungarian Empire. It is no affair of ours'
p869
sg14
g15
sg16
I13182
sg17
F0.37102909196161421
sg18
g19
sba(ipassage
Passage
p870
(dp871
g4
I13333
sg5
(dp872
g7
F4.0666666666666664
sg8
F0.55172413793103448
sg9
F4.068965517241379
sg10
F17.666666666666668
sg11
F0
ssg12
S'what they do with their own life, either industrially or politically. We do'
p873
sg14
g15
sg16
I13258
sg17
F0.31673209530786578
sg18
g19
sba(ipassage
Passage
p874
(dp875
g4
I13408
sg5
(dp876
g7
F3.6875
sg8
F0.54838709677419351
sg9
F3.7419354838709675
sg10
F17.5
sg11
F0
ssg12
S'not purpose or desire to dictate to them in any way. We only desire to see'
p877
sg14
g15
sg16
I13334
sg17
F0.3149228654858417
sg18
g19
sba(ipassage
Passage
p878
(dp879
g4
I13481
sg5
(dp880
g7
F4
sg8
F0.48275862068965519
sg9
F3.5862068965517242
sg10
F35
sg11
F0.034482758620689655
ssg12
S'that their affairs are left in their own hands, in all matters, great or'
p881
sg14
g15
sg16
I13409
sg17
F0.30104095388190444
sg18
g19
sba(ipassage
Passage
p882
(dp883
g4
I13556
sg5
(dp884
g7
F4.4074074074074074
sg8
F0.5
sg9
F3.1153846153846154
sg10
F35
sg11
F0.038461538461538464
ssg12
S'small. We shall hope to secure for the peoples of the Balkan peninsula and'
p885
sg14
g15
sg16
I13482
sg17
F0.33593747280911634
sg18
g19
sba(ipassage
Passage
p886
(dp887
g4
I13627
sg5
(dp888
g7
F4.6799999999999997
sg8
F0.5
sg9
F4.083333333333333
sg10
F48
sg11
F0
ssg12
S'for the people of the Turkish Empire the right and opportunity to make'
p889
sg14
g15
sg16
I13557
sg17
F0.31309573634211113
sg18
g19
sba(ipassage
Passage
p890
(dp891
g4
I13697
sg5
(dp892
g7
F5.0909090909090908
sg8
F0.47619047619047616
sg9
F4.9523809523809526
sg10
F48
sg11
F0
ssg12
S'their own lives safe, their own fortunes secure against oppression or'
p893
sg14
g15
sg16
I13628
sg17
F0.64202919520873414
sg18
g19
sba(ipassage
Passage
p894
(dp895
g4
I13760
sg5
(dp896
g7
F5.2999999999999998
sg8
F0.55555555555555558
sg9
F4.2222222222222223
sg10
F48
sg11
F0
ssg12
S'injustice and from the dictation of foreign courts or parties.'
p897
sg14
g15
sg16
I13698
sg17
F0.45115550400878279
sg18
g19
sba(ipassage
Passage
p898
(dp899
g4
I13760
sg5
(dp900
g7
F4.5333333333333332
sg8
F0.5714285714285714
sg9
F3.3571428571428572
sg10
F31.5
sg11
F0
ssg12
S''
sg14
g15
sg16
I13760
sg17
F0.29195734073911256
sg18
g19
sba(ipassage
Passage
p901
(dp902
g4
I13835
sg5
(dp903
g7
F4.4814814814814818
sg8
F0.5
sg9
F4.0769230769230766
sg10
F15
sg11
F0.038461538461538464
ssg12
S'And our attitude and purpose with regard to Germany herself are of a like'
p904
sg14
g15
sg16
I13762
sg17
F0.38129576916621744
sg18
g19
sba(ipassage
Passage
p905
(dp906
g4
I13908
sg5
(dp907
g7
F4.7692307692307692
sg8
F0.44
sg9
F4.5999999999999996
sg10
F21.333333333333332
sg11
F0.040000000000000001
ssg12
S'kind. We intend no wrong against the German Empire, no interference with'
p908
sg14
g15
sg16
I13836
sg17
F0.49438306414017263
sg18
g19
sba(ipassage
Passage
p909
(dp910
g4
I13984
sg5
(dp911
g7
F5.291666666666667
sg8
F0.43478260869565216
sg9
F4.4782608695652177
sg10
F24.5
sg11
F0
ssg12
S'her internal affairs. We should deem either the one or the other absolutely'
p912
sg14
g15
sg16
I13909
sg17
F0.62678988138606506
sg18
g19
sba(ipassage
Passage
p913
(dp914
g4
I14058
sg5
(dp915
g7
F4.833333333333333
sg8
F0.52173913043478259
sg9
F4.1304347826086953
sg10
F34
sg11
F0
ssg12
S'unjustifiable, absolutely contrary to the principles we have professed to'
p916
sg14
g15
sg16
I13985
sg17
F0.36779212833354447
sg18
g19
sba(ipassage
Passage
p917
(dp918
g4
I14123
sg5
(dp919
g7
F4
sg8
F0.58333333333333337
sg9
F4.25
sg10
F34
sg11
F0
ssg12
S'live by and to hold most sacred throughout our life as a nation.'
p920
sg14
g15
sg16
I14059
sg17
F0.303844110155433
sg18
g19
sba(ipassage
Passage
p921
(dp922
g4
I14123
sg5
(dp923
g7
F4
sg8
F0.59999999999999998
sg9
F3.5333333333333332
sg10
F39.5
sg11
F0
ssg12
S''
sg14
g15
sg16
I14123
sg17
F0.26798541797545161
sg18
g19
sba(ipassage
Passage
p924
(dp925
g4
I14196
sg5
(dp926
g7
F3.9655172413793105
sg8
F0.6785714285714286
sg9
F3.6428571428571428
sg10
F45
sg11
F0
ssg12
S'The people of Germany are being told by the men whom they now permit to'
p927
sg14
g15
sg16
I14125
sg17
F0.30664745947510991
sg18
g19
sba(ipassage
Passage
p928
(dp929
g4
I14268
sg5
(dp930
g7
F4.4074074074074074
sg8
F0.61538461538461542
sg9
F3.3846153846153846
sg10
F45
sg11
F0
ssg12
S'deceive them and to act as their masters that they are fighting for the'
p931
sg14
g15
sg16
I14197
sg17
F0.28265543557052614
sg18
g19
sba(ipassage
Passage
p932
(dp933
g4
I14341
sg5
(dp934
g7
F5.3913043478260869
sg8
F0.40909090909090912
sg9
F4.5454545454545459
sg10
F37.5
sg11
F0
ssg12
S'very life and existence of their empire, a war of desperate self-defense'
p935
sg14
g15
sg16
I14269
sg17
F0.70764838424713838
sg18
g19
sba(ipassage
Passage
p936
(dp937
g4
I14414
sg5
(dp938
g7
F4.6538461538461542
sg8
F0.44
sg9
F4.4800000000000004
sg10
F37.5
sg11
F0.040000000000000001
ssg12
S'against deliberate aggression. Nothing could be more grossly or wantonly'
p939
sg14
g15
sg16
I14342
sg17
F0.46113212654469588
sg18
g19
sba(ipassage
Passage
p940
(dp941
g4
I14487
sg5
(dp942
g7
F3.9333333333333331
sg8
F0.55172413793103448
sg9
F3.7931034482758621
sg10
F33
sg11
F0.034482758620689655
ssg12
S'false, and we must seek by the utmost openness and candor as to our real'
p943
sg14
g15
sg16
I14415
sg17
F0.29433094196959275
sg18
g19
sba(ipassage
Passage
p944
(dp945
g4
I14561
sg5
(dp946
g7
F4.25
sg8
F0.55555555555555558
sg9
F4.0370370370370372
sg10
F33
sg11
F0
ssg12
S'aims to convince them of its falseness. We are in fact fighting for their'
p947
sg14
g15
sg16
I14488
sg17
F0.26231247402618185
sg18
g19
sba(ipassage
Passage
p948
(dp949
g4
I14633
sg5
(dp950
g7
F4.3703703703703702
sg8
F0.53846153846153844
sg9
F4.3076923076923075
sg10
F36
sg11
F0
ssg12
S'emancipation from the fear, along with our own-from the fear as well as'
p951
sg14
g15
sg16
I14562
sg17
F0.31452828753340484
sg18
g19
sba(ipassage
Passage
p952
(dp953
g4
I14705
sg5
(dp954
g7
F4.7999999999999998
sg8
F0.45833333333333331
sg9
F4.416666666666667
sg10
F26.5
sg11
F0
ssg12
S'from the fact of unjust attack by neighbors or rivals or schemers after'
p955
sg14
g15
sg16
I14634
sg17
F0.50702120540595041
sg18
g19
sba(ipassage
Passage
p956
(dp957
g4
I14778
sg5
(dp958
g7
F5.2631578947368425
sg8
F0.44444444444444442
sg9
F3.9444444444444446
sg10
F26.5
sg11
F0
ssg12
S'world empire. No one is threatening the existence or the independence of'
p959
sg14
g15
sg16
I14706
sg17
F0.49942358839088197
sg18
g19
sba(ipassage
Passage
p960
(dp961
g4
I14824
sg5
(dp962
g7
F5.5714285714285712
sg8
F0.33333333333333331
sg9
F4.333333333333333
sg10
F17
sg11
F0
ssg12
S'the peaceful enterprise of the German Empire.'
p963
sg14
g15
sg16
I14779
sg17
F0.66288090275963973
sg18
g19
sba(ipassage
Passage
p964
(dp965
g4
I14824
sg5
(dp966
g7
F4.25
sg8
F0.53333333333333333
sg9
F3.1333333333333333
sg10
F49.5
sg11
F0
ssg12
S''
sg14
g15
sg16
I14824
sg17
F0.28274940408433002
sg18
g19
sba(ipassage
Passage
p967
(dp968
g4
I14900
sg5
(dp969
g7
F3.8125
sg8
F0.58064516129032262
sg9
F3.5161290322580645
sg10
F82
sg11
F0
ssg12
S'The worst that can happen to the detriment the German people is this, that'
p970
sg14
g15
sg16
I14826
sg17
F0.31127448764930077
sg18
g19
sba(ipassage
Passage
p971
(dp972
g4
I14976
sg5
(dp973
g7
F4.4285714285714288
sg8
F0.51851851851851849
sg9
F3.8518518518518516
sg10
F82
sg11
F0
ssg12
S'if they should still, after the war is over, continue to be obliged to live'
p974
sg14
g15
sg16
I14901
sg17
F0.31821875864137567
sg18
g19
sba(ipassage
Passage
p975
(dp976
g4
I15050
sg5
(dp977
g7
F4.5555555555555554
sg8
F0.46153846153846156
sg9
F3.3461538461538463
sg10
F82
sg11
F0
ssg12
S'under ambitious and intriguing masters interested to disturb the peace of'
p978
sg14
g15
sg16
I14977
sg17
F0.35037824265171602
sg18
g19
sba(ipassage
Passage
p979
(dp980
g4
I15125
sg5
(dp981
g7
F3.8999999999999999
sg8
F0.51724137931034486
sg9
F3.103448275862069
sg10
F82
sg11
F0
ssg12
S'the world, men or classes of men whom the other peoples of the world could'
p982
sg14
g15
sg16
I15051
sg17
F0.32685925147427669
sg18
g19
sba(ipassage
Passage
p983
(dp984
g4
I15195
sg5
(dp985
g7
F4.9199999999999999
sg8
F0.375
sg9
F3.9583333333333335
sg10
F48.5
sg11
F0.041666666666666664
ssg12
S'not trust, it might be impossible to admit them to the partnership of'
p986
sg14
g15
sg16
I15126
sg17
F0.46770217885812049
sg18
g19
sba(ipassage
Passage
p987
(dp988
g4
I15271
sg5
(dp989
g7
F5.1600000000000001
sg8
F0.33333333333333331
sg9
F3.9583333333333335
sg10
F43.333333333333336
sg11
F0.041666666666666664
ssg12
S"nations which must henceforth guarantee the world's peace. That partnership"
p990
sg14
g15
sg16
I15196
sg17
F0.51382871696854204
sg18
g19
sba(ipassage
Passage
p991
(dp992
g4
I15347
sg5
(dp993
g7
F4.5714285714285712
sg8
F0.37037037037037035
sg9
F3.5185185185185186
sg10
F24
sg11
F0.037037037037037035
ssg12
S'must be a partnership of peoples, not a mere partnership of governments. It'
p994
sg14
g15
sg16
I15272
sg17
F0.41294231186839736
sg18
g19
sba(ipassage
Passage
p995
(dp996
g4
I15423
sg5
(dp997
g7
F4.8461538461538458
sg8
F0.40000000000000002
sg9
F3.8399999999999999
sg10
F33
sg11
F0.040000000000000001
ssg12
S'might be impossible, also, in such untoward circumstances, to admit Germany'
p998
sg14
g15
sg16
I15348
sg17
F0.43523953188432168
sg18
g19
sba(ipassage
Passage
p999
(dp1000
g4
I15496
sg5
(dp1001
g7
F4.7999999999999998
sg8
F0.5
sg9
F4.291666666666667
sg10
F36.5
sg11
F0
ssg12
S'to the free economic intercourse which must inevitably spring out of the'
p1002
sg14
g15
sg16
I15424
sg17
F0.41162902162975118
sg18
g19
sba(ipassage
Passage
p1003
(dp1004
g4
I15568
sg5
(dp1005
g7
F4.1724137931034484
sg8
F0.5
sg9
F3.4642857142857144
sg10
F36.5
sg11
F0
ssg12
S'other partnerships of a real peace. But there would be no aggression in'
p1006
sg14
g15
sg16
I15497
sg17
F0.25657595487915374
sg18
g19
sba(ipassage
Passage
p1007
(dp1008
g4
I15642
sg5
(dp1009
g7
F4.166666666666667
sg8
F0.44827586206896552
sg9
F3.8620689655172415
sg10
F40
sg11
F0
ssg12
S'that; and such a situation, inevitable, because of distrust, would in the'
p1010
sg14
g15
sg16
I15569
sg17
F0.27862159835668615
sg18
g19
sba(ipassage
Passage
p1011
(dp1012
g4
I15718
sg5
(dp1013
g7
F4.5882352941176467
sg8
F0.3125
sg9
F5.25
sg10
F40
sg11
F0
ssg12
S'very nature of things sooner or later cure itself, by processes which would'
p1014
sg14
g15
sg16
I15643
sg17
F0.71738198370147432
sg18
g19
sba(ipassage
Passage
p1015
(dp1016
g4
I15736
sg5
(dp1017
g7
F5
sg8
F0
sg9
F6.5
sg10
F40
sg11
F0
ssg12
S'assuredly set in.'
p1018
sg14
g15
sg16
I15719
sg17
F0.60936301487421818
sg18
g19
sba(ipassage
Passage
p1019
(dp1020
g4
I15736
sg5
(dp1021
g7
F3.5882352941176472
sg8
F0.5
sg9
F2.9375
sg10
F28.5
sg11
F0.0625
ssg12
S''
sg14
g15
sg16
I15736
sg17
F0.39159701897828769
sg18
g19
sba(ipassage
Passage
p1022
(dp1023
g4
I15809
sg5
(dp1024
g7
F3.774193548387097
sg8
F0.5
sg9
F3.2333333333333334
sg10
F13.333333333333334
sg11
F0.033333333333333333
ssg12
S'The wrongs, the very deep wrongs, committed in this war will have to be'
p1025
sg14
g15
sg16
I15738
sg17
F0.34057429222730079
sg18
g19
sba(ipassage
Passage
p1026
(dp1027
g4
I15882
sg5
(dp1028
g7
F4.5555555555555554
sg8
F0.46153846153846156
sg9
F3.5
sg10
F14.25
sg11
F0
ssg12
S'righted. That, of course. But they cannot and must not be righted by the'
p1029
sg14
g15
sg16
I15810
sg17
F0.35802253990808969
sg18
g19
sba(ipassage
Passage
p1030
(dp1031
g4
I15958
sg5
(dp1032
g7
F4.96
sg8
F0.5
sg9
F3.7083333333333335
sg10
F18
sg11
F0
ssg12
S'commission of similar wrongs against Germany and her allies. The world will'
p1033
sg14
g15
sg16
I15883
sg17
F0.38792557929968136
sg18
g19
sba(ipassage
Passage
p1034
(dp1035
g4
I16031
sg5
(dp1036
g7
F4.8399999999999999
sg8
F0.5
sg9
F3.875
sg10
F20
sg11
F0
ssg12
S'not permit the commission of similar wrongs as a means of reparation and'
p1037
sg14
g15
sg16
I15959
sg17
F0.37718817880572592
sg18
g19
sba(ipassage
Passage
p1038
(dp1039
g4
I16104
sg5
(dp1040
g7
F5.1304347826086953
sg8
F0.45454545454545453
sg9
F4.2272727272727275
sg10
F20
sg11
F0
ssg12
S'settlement. Statesmen must by this time have learned that the opinion of'
p1041
sg14
g15
sg16
I16032
sg17
F0.52583745332936493
sg18
g19
sba(ipassage
Passage
p1042
(dp1043
g4
I16172
sg5
(dp1044
g7
F5.8571428571428568
sg8
F0.29999999999999999
sg9
F5.4000000000000004
sg10
F25.5
sg11
F0
ssg12
S'the world is everywhere wide awake and fully comprehends the issues'
p1045
sg14
g15
sg16
I16105
sg17
F0.71137716923739147
sg18
g19
sba(ipassage
Passage
p1046
(dp1047
g4
I16248
sg5
(dp1048
g7
F5.8181818181818183
sg8
F0.52380952380952384
sg9
F4.7619047619047619
sg10
F25.5
sg11
F0
ssg12
S'involved. No representative of any self-governed nation will dare disregard'
p1049
sg14
g15
sg16
I16173
sg17
F0.58544148489292225
sg18
g19
sba(ipassage
Passage
p1050
(dp1051
g4
I16322
sg5
(dp1052
g7
F4.8399999999999999
sg8
F0.54166666666666663
sg9
F3.875
sg10
F35.5
sg11
F0
ssg12
S'it by attempting any such covenants of selfishness and compromise as were'
p1053
sg14
g15
sg16
I16249
sg17
F0.32201873789775026
sg18
g19
sba(ipassage
Passage
p1054
(dp1055
g4
I16394
sg5
(dp1056
g7
F4.7307692307692308
sg8
F0.47999999999999998
sg9
F3.3999999999999999
sg10
F35.5
sg11
F0.040000000000000001
ssg12
S'entered into at the Congress of Vienna. The thought of the plain people'
p1057
sg14
g15
sg16
I16323
sg17
F0.35862134524531186
sg18
g19
sba(ipassage
Passage
p1058
(dp1059
g4
I16470
sg5
(dp1060
g7
F4.8461538461538458
sg8
F0.47999999999999998
sg9
F3.48
sg10
F43
sg11
F0.040000000000000001
ssg12
S'here and everywhere throughout the world, the people who enjoy no privilege'
p1061
sg14
g15
sg16
I16395
sg17
F0.36564958381153151
sg18
g19
sba(ipassage
Passage
p1062
(dp1063
g4
I16544
sg5
(dp1064
g7
F4.958333333333333
sg8
F0.43478260869565216
sg9
F4.3913043478260869
sg10
F43
sg11
F0
ssg12
S'and have very simple and unsophisticated standards of right and wrong, is'
p1065
sg14
g15
sg16
I16471
sg17
F0.57426478411648074
sg18
g19
sba(ipassage
Passage
p1066
(dp1067
g4
I16612
sg5
(dp1068
g7
F5.1818181818181817
sg8
F0.29999999999999999
sg9
F5.7999999999999998
sg10
F43
sg11
F0
ssg12
S'the air all governments must henceforth breathe if they would live.'
p1069
sg14
g15
sg16
I16545
sg17
F0.71093800967910525
sg18
g19
sba(ipassage
Passage
p1070
(dp1071
g4
I16612
sg5
(dp1072
g7
F4.333333333333333
sg8
F0.5
sg9
F3.6428571428571428
sg10
F35
sg11
F0
ssg12
S''
sg14
g15
sg16
I16612
sg17
F0.24601950764789157
sg18
g19
sba(ipassage
Passage
p1073
(dp1074
g4
I16687
sg5
(dp1075
g7
F4.1724137931034484
sg8
F0.4642857142857143
sg9
F4.3214285714285712
sg10
F22.666666666666668
sg11
F0
ssg12
S'It is in the full disclosing light of that thought that all policies must'
p1076
sg14
g15
sg16
I16614
sg17
F0.38411570902490505
sg18
g19
sba(ipassage
Passage
p1077
(dp1078
g4
I16762
sg5
(dp1079
g7
F4.068965517241379
sg8
F0.5
sg9
F4.1785714285714288
sg10
F22.666666666666668
sg11
F0
ssg12
S"be received and executed in this midday hour of the world's life. Ger. man"
p1080
sg14
g15
sg16
I16688
sg17
F0.32796414983032757
sg18
g19
sba(ipassage
Passage
p1081
(dp1082
g4
I16833
sg5
(dp1083
g7
F4.4800000000000004
sg8
F0.625
sg9
F3.6666666666666665
sg10
F40
sg11
F0
ssg12
S'rulers have been able to upset the peace of the world only because the'
p1084
sg14
g15
sg16
I16763
sg17
F0.28402957568848958
sg18
g19
sba(ipassage
Passage
p1085
(dp1086
g4
I16899
sg5
(dp1087
g7
F4.666666666666667
sg8
F0.60869565217391308
sg9
F3.6086956521739131
sg10
F40
sg11
F0
ssg12
S'German people were not suffered under their tutelage to share the'
p1088
sg14
g15
sg16
I16834
sg17
F0.29379144403318508
sg18
g19
sba(ipassage
Passage
p1089
(dp1090
g4
I16969
sg5
(dp1091
g7
F4.333333333333333
sg8
F0.65384615384615385
sg9
F3.2692307692307692
sg10
F33.5
sg11
F0.038461538461538464
ssg12
S'comradeship of the other peoples of the world either in thought or in'
p1092
sg14
g15
sg16
I16900
sg17
F0.33397360363238376
sg18
g19
sba(ipassage
Passage
p1093
(dp1094
g4
I17043
sg5
(dp1095
g7
F4.25
sg8
F0.62962962962962965
sg9
F4.2222222222222223
sg10
F33.5
sg11
F0.037037037037037035
ssg12
S'purpose. They were allowed to have no opinion of their own which might be'
p1096
sg14
g15
sg16
I16970
sg17
F0.34274781203295468
sg18
g19
sba(ipassage
Passage
p1097
(dp1098
g4
I17116
sg5
(dp1099
g7
F4.3214285714285712
sg8
F0.55555555555555558
sg9
F4.0370370370370372
sg10
F27
sg11
F0
ssg12
S'set up as a rule of conduct for those who exercised authority over them.'
p1100
sg14
g15
sg16
I17044
sg17
F0.28562461614055135
sg18
g19
sba(ipassage
Passage
p1101
(dp1102
g4
I17192
sg5
(dp1103
g7
F4.5185185185185182
sg8
F0.5
sg9
F3.7307692307692308
sg10
F27
sg11
F0
ssg12
S'But the Congress that concludes this war will feel the full strength of the'
p1104
sg14
g15
sg16
I17117
sg17
F0.29127472658694759
sg18
g19
sba(ipassage
Passage
p1105
(dp1106
g4
I17265
sg5
(dp1107
g7
F4.7999999999999998
sg8
F0.47368421052631576
sg9
F4.3684210526315788
sg10
F17
sg11
F0
ssg12
S'tides that run now in the hearts and consciences of free men everywhere.'
p1108
sg14
g15
sg16
I17193
sg17
F0.48158095005071239
sg18
g19
sba(ipassage
Passage
p1109
(dp1110
g4
I17308
sg5
(dp1111
g7
F5.1428571428571432
sg8
F0.5
sg9
F5.5
sg10
F7
sg11
F0
ssg12
S'Its conclusions will run with those tides.'
p1112
sg14
g15
sg16
I17266
sg17
F0.60028206686670371
sg18
g19
sba(ipassage
Passage
p1113
(dp1114
g4
I17308
sg5
(dp1115
g7
F4.8571428571428568
sg8
F0.61538461538461542
sg9
F4.0769230769230766
sg10
F37.5
sg11
F0
ssg12
S''
sg14
g15
sg16
I17308
sg17
F0.34925977094012733
sg18
g19
sba(ipassage
Passage
p1116
(dp1117
g4
I17384
sg5
(dp1118
g7
F4.1034482758620694
sg8
F0.5714285714285714
sg9
F4
sg10
F68
sg11
F0.035714285714285712
ssg12
S'All those things have been true from the very beginning of this stupendous'
p1119
sg14
g15
sg16
I17310
sg17
F0.31032600398264204
sg18
g19
sba(ipassage
Passage
p1120
(dp1121
g4
I17456
sg5
(dp1122
g7
F4.2142857142857144
sg8
F0.51851851851851849
sg9
F3.8518518518518516
sg10
F68
sg11
F0.037037037037037035
ssg12
S'war; and I cannot help thinking that if they had been made plain at the'
p1123
sg14
g15
sg16
I17385
sg17
F0.31146568076473341
sg18
g19
sba(ipassage
Passage
p1124
(dp1125
g4
I17529
sg5
(dp1126
g7
F4.4615384615384617
sg8
F0.56000000000000005
sg9
F3.6800000000000002
sg10
F68
sg11
F0
ssg12
S'very outset the sympathy and enthusiasm of the Russian people might have'
p1127
sg14
g15
sg16
I17457
sg17
F0.26733866432939024
sg18
g19
sba(ipassage
Passage
p1128
(dp1129
g4
I17597
sg5
(dp1130
g7
F4.1785714285714288
sg8
F0.44444444444444442
sg9
F3.925925925925926
sg10
F58
sg11
F0
ssg12
S'been once for all enlisted on the side of the Allies, suspicion and'
p1131
sg14
g15
sg16
I17530
sg17
F0.28896881422121107
sg18
g19
sba(ipassage
Passage
p1132
(dp1133
g4
I17672
sg5
(dp1134
g7
F4.4285714285714288
sg8
F0.48148148148148145
sg9
F3.7777777777777777
sg10
F58
sg11
F0
ssg12
S'distrust swept away, and a real and lasting union of purpose effected. Had'
p1135
sg14
g15
sg16
I17598
sg17
F0.24751947278417469
sg18
g19
sba(ipassage
Passage
p1136
(dp1137
g4
I17747
sg5
(dp1138
g7
F4.4444444444444446
sg8
F0.57692307692307687
sg9
F3.8846153846153846
sg10
F48
sg11
F0
ssg12
S'they believed these things at the very moment of their revolution, and had'
p1139
sg14
g15
sg16
I17673
sg17
F0.24306398300636112
sg18
g19
sba(ipassage
Passage
p1140
(dp1141
g4
I17817
sg5
(dp1142
g7
F4.8799999999999999
sg8
F0.45833333333333331
sg9
F4.625
sg10
F48
sg11
F0
ssg12
S'they been confirmed in that belief since, the sad reverses which have'
p1143
sg14
g15
sg16
I17748
sg17
F0.58168628599039884
sg18
g19
sba(ipassage
Passage
p1144
(dp1145
g4
I17893
sg5
(dp1146
g7
F5.166666666666667
sg8
F0.39130434782608697
sg9
F4.2173913043478262
sg10
F40
sg11
F0
ssg12
S'recently marked the progress of their affairs towards an ordered and stable'
p1147
sg14
g15
sg16
I17818
sg17
F0.62053648519760096
sg18
g19
sba(ipassage
Passage
p1148
(dp1149
g4
I17965
sg5
(dp1150
g7
F4.8799999999999999
sg8
F0.5
sg9
F3.875
sg10
F40
sg11
F0
ssg12
S'government of free men might have been avoided. The Russian people have'
p1151
sg14
g15
sg16
I17894
sg17
F0.34235580193156157
sg18
g19
sba(ipassage
Passage
p1152
(dp1153
g4
I18040
sg5
(dp1154
g7
F4.3214285714285712
sg8
F0.62962962962962965
sg9
F3.925925925925926
sg10
F32
sg11
F0
ssg12
S'been poisoned by the very same falsehoods that have kept the German people'
p1155
sg14
g15
sg16
I17966
sg17
F0.29596908333575678
sg18
g19
sba(ipassage
Passage
p1156
(dp1157
g4
I18113
sg5
(dp1158
g7
F4.2857142857142856
sg8
F0.51851851851851849
sg9
F4.2222222222222223
sg10
F16
sg11
F0
ssg12
S'in the dark, and the poison has been administered by the very same hand.'
p1159
sg14
g15
sg16
I18041
sg17
F0.35565451138233189
sg18
g19
sba(ipassage
Passage
p1160
(dp1161
g4
I18187
sg5
(dp1162
g7
F4.5
sg8
F0.46666666666666667
sg9
F5.1333333333333337
sg10
F8
sg11
F0
ssg12
S'The only possible antidote is the truth. It cannot be uttered too plainly'
p1163
sg14
g15
sg16
I18114
sg17
F0.55822720723712216
sg18
g19
sba(ipassage
Passage
p1164
(dp1165
g4
I18201
sg5
(dp1166
g7
F3.6666666666666665
sg8
F0.5
sg9
F7
sg10
F9
sg11
F0
ssg12
S'or too often.'
p1167
sg14
g15
sg16
I18188
sg17
F0.53897082068800806
sg18
g19
sba(ipassage
Passage
p1168
(dp1169
g4
I18201
sg5
(dp1170
g7
F3.6111111111111112
sg8
F0.41176470588235292
sg9
F3.7647058823529411
sg10
F24.5
sg11
F0
ssg12
S''
sg14
g15
sg16
I18201
sg17
F0.36093489097814341
sg18
g19
sba(ipassage
Passage
p1171
(dp1172
g4
I18276
sg5
(dp1173
g7
F4.3214285714285712
sg8
F0.44444444444444442
sg9
F4
sg10
F40
sg11
F0
ssg12
S'From every point of view, therefore, it has seemed to be my duty to speak'
p1174
sg14
g15
sg16
I18203
sg17
F0.30797899809297746
sg18
g19
sba(ipassage
Passage
p1175
(dp1176
g4
I18348
sg5
(dp1177
g7
F4.8399999999999999
sg8
F0.41666666666666669
sg9
F4.125
sg10
F30
sg11
F0
ssg12
S'these declarations of purpose, to add these specific interpretations to'
p1178
sg14
g15
sg16
I18277
sg17
F0.49491191206265084
sg18
g19
sba(ipassage
Passage
p1179
(dp1180
g4
I18421
sg5
(dp1181
g7
F4.4814814814814818
sg8
F0.46153846153846156
sg9
F4.115384615384615
sg10
F30
sg11
F0.038461538461538464
ssg12
S'what I took the liberty of saying to the Senate in January. Our entrance'
p1182
sg14
g15
sg16
I18349
sg17
F0.38167960551665336
sg18
g19
sba(ipassage
Passage
p1183
(dp1184
g4
I18496
sg5
(dp1185
g7
F4.3888888888888893
sg8
F0.52941176470588236
sg9
F4.2941176470588234
sg10
F20
sg11
F0.058823529411764705
ssg12
S'into the war has not altered out attitude towards the settlement that must'
p1186
sg14
g15
sg16
I18422
sg17
F0.42331137507596972
sg18
g19
sba(ipassage
Passage
p1187
(dp1188
g4
I18518
sg5
(dp1189
g7
F3.3999999999999999
sg8
F0.75
sg9
F4.25
sg10
F20
sg11
F0
ssg12
S'come when it is over.'
p1190
sg14
g15
sg16
I18497
sg17
F0.37944541081599803
sg18
g19
sba(ipassage
Passage
p1191
(dp1192
g4
I18518
sg5
(dp1193
g7
F4.125
sg8
F0.53333333333333333
sg9
F3.7333333333333334
sg10
F49.5
sg11
F0
ssg12
S''
sg14
g15
sg16
I18518
sg17
F0.2126308231053417
sg18
g19
sba(ipassage
Passage
p1194
(dp1195
g4
I18595
sg5
(dp1196
g7
F4.0999999999999996
sg8
F0.48275862068965519
sg9
F3.7931034482758621
sg10
F79
sg11
F0
ssg12
S'When I said in January that the nations of the world were entitled not only'
p1197
sg14
g15
sg16
I18520
sg17
F0.30721955004819046
sg18
g19
sba(ipassage
Passage
p1198
(dp1199
g4
I18671
sg5
(dp1200
g7
F3.967741935483871
sg8
F0.40000000000000002
sg9
F3.7000000000000002
sg10
F79
sg11
F0
ssg12
S'to free pathways upon the sea, but also to assured and unmolested access to'
p1201
sg14
g15
sg16
I18596
sg17
F0.36594201465460102
sg18
g19
sba(ipassage
Passage
p1202
(dp1203
g4
I18745
sg5
(dp1204
g7
F4.2413793103448274
sg8
F0.42857142857142855
sg9
F3.6071428571428572
sg10
F79
sg11
F0.035714285714285712
ssg12
S'those-pathways, I was thinking, and I am thinking now, not of the smaller'
p1205
sg14
g15
sg16
I18672
sg17
F0.35880035329993976
sg18
g19
sba(ipassage
Passage
p1206
(dp1207
g4
I18819
sg5
(dp1208
g7
F4.3928571428571432
sg8
F0.48148148148148145
sg9
F3.7407407407407409
sg10
F79
sg11
F0.037037037037037035
ssg12
S'and weaker nations alone which need our countenance and support, but also'
p1209
sg14
g15
sg16
I18746
sg17
F0.34588698361063813
sg18
g19
sba(ipassage
Passage
p1210
(dp1211
g4
I18895
sg5
(dp1212
g7
F3.9666666666666668
sg8
F0.51724137931034486
sg9
F3.3793103448275863
sg10
F52
sg11
F0.034482758620689655
ssg12
S'of the great and powerful nations and of our present enemies as well as our'
p1213
sg14
g15
sg16
I18820
sg17
F0.29203432494090747
sg18
g19
sba(ipassage
Passage
p1214
(dp1215
g4
I18966
sg5
(dp1216
g7
F3.7999999999999998
sg8
F0.48275862068965519
sg9
F3.5172413793103448
sg10
F52
sg11
F0.034482758620689655
ssg12
S'present associates in the war. I was thinking, and am thinking now, of'
p1217
sg14
g15
sg16
I18896
sg17
F0.30269427587496378
sg18
g19
sba(ipassage
Passage
p1218
(dp1219
g4
I19035
sg5
(dp1220
g7
F3.7333333333333334
sg8
F0.5
sg9
F3.3571428571428572
sg10
F25
sg11
F0
ssg12
S'Austria herself, among the rest, as well as of Serbia and of Poland.'
p1221
sg14
g15
sg16
I18967
sg17
F0.30926852185432524
sg18
g19
sba(ipassage
Passage
p1222
(dp1223
g4
I19035
sg5
(dp1224
g7
F4
sg8
F0.59999999999999998
sg9
F3.7999999999999998
sg10
F20.333333333333332
sg11
F0
ssg12
S''
sg14
g15
sg16
I19035
sg17
F0.3014456925847836
sg18
g19
sba(ipassage
Passage
p1225
(dp1226
g4
I19108
sg5
(dp1227
g7
F4.1379310344827589
sg8
F0.5
sg9
F3.3571428571428572
sg10
F18
sg11
F0
ssg12
S'Justice and equality of rights can be had only at a great price. We are'
p1228
sg14
g15
sg16
I19037
sg17
F0.31219806282504708
sg18
g19
sba(ipassage
Passage
p1229
(dp1230
g4
I19182
sg5
(dp1231
g7
F4.5
sg8
F0.37037037037037035
sg9
F3.3333333333333335
sg10
F17
sg11
F0
ssg12
S'seeking permanent, not temporary, foundations for the peace of the world,'
p1232
sg14
g15
sg16
I19109
sg17
F0.41148773677995332
sg18
g19
sba(ipassage
Passage
p1233
(dp1234
g4
I19258
sg5
(dp1235
g7
F4.4444444444444446
sg8
F0.41176470588235292
sg9
F3.8823529411764706
sg10
F17
sg11
F0
ssg12
S'and must seek them candidly and fearlessly. As always, the right will prove'
p1236
sg14
g15
sg16
I19183
sg17
F0.40589727668948727
sg18
g19
sba(ipassage
Passage
p1237
(dp1238
g4
I19279
sg5
(dp1239
g7
F4.25
sg8
F0.66666666666666663
sg9
F3.3333333333333335
sg10
F11
sg11
F0
ssg12
S'to be the expedient.'
p1240
sg14
g15
sg16
I19259
sg17
F0.34195486081089521
sg18
g19
sba(ipassage
Passage
p1241
(dp1242
g4
I19279
sg5
(dp1243
g7
F3.7777777777777777
sg8
F0.47058823529411764
sg9
F3.0588235294117645
sg10
F16
sg11
F0
ssg12
S''
sg14
g15
sg16
I19279
sg17
F0.34517758462976628
sg18
g19
sba(ipassage
Passage
p1244
(dp1245
g4
I19353
sg5
(dp1246
g7
F3.8666666666666667
sg8
F0.41379310344827586
sg9
F3.7931034482758621
sg10
F30
sg11
F0
ssg12
S'What shall we do, then, to push this great war of freedom and justice to'
p1247
sg14
g15
sg16
I19281
sg17
F0.34253255262706406
sg18
g19
sba(ipassage
Passage
p1248
(dp1249
g4
I19423
sg5
(dp1250
g7
F4.4444444444444446
sg8
F0.34615384615384615
sg9
F4.115384615384615
sg10
F30
sg11
F0
ssg12
S'its righteous conclusion? We must clear away with a thorough hand all'
p1251
sg14
g15
sg16
I19354
sg17
F0.50533389486093705
sg18
g19
sba(ipassage
Passage
p1252
(dp1253
g4
I19498
sg5
(dp1254
g7
F4.2142857142857144
sg8
F0.48148148148148145
sg9
F3.3703703703703702
sg10
F39
sg11
F0
ssg12
S'impediments to success, and we must make every adjustment of law that will'
p1255
sg14
g15
sg16
I19424
sg17
F0.2717490185660052
sg18
g19
sba(ipassage
Passage
p1256
(dp1257
g4
I19568
sg5
(dp1258
g7
F4.3125
sg8
F0.46666666666666667
sg9
F3.7999999999999998
sg10
F39
sg11
F0
ssg12
S'facilitate the full and free use of our whole capacity and force as a'
p1259
sg14
g15
sg16
I19499
sg17
F0.25669833116001434
sg18
g19
sba(ipassage
Passage
p1260
(dp1261
g4
I19583
sg5
(dp1262
g7
F6.5
sg8
F0
sg9
F8
sg10
F39
sg11
F0
ssg12
S'fighting unit.'
p1263
sg14
g15
sg16
I19569
sg17
F0.58210332915342045
sg18
g19
sba(ipassage
Passage
p1264
(dp1265
g4
I19583
sg5
(dp1266
g7
F4.125
sg8
F0.53333333333333333
sg9
F4.5333333333333332
sg10
F30.5
sg11
F0.066666666666666666
ssg12
S''
sg14
g15
sg16
I19583
sg17
F0.43536974177723586
sg18
g19
sba(ipassage
Passage
p1267
(dp1268
g4
I19660
sg5
(dp1269
g7
F4.1785714285714288
sg8
F0.51851851851851849
sg9
F4.1851851851851851
sg10
F22
sg11
F0.037037037037037035
ssg12
S'One very embarrassing obstacle that stands hi our way is that we are at war'
p1270
sg14
g15
sg16
I19585
sg17
F0.35299084856401119
sg18
g19
sba(ipassage
Passage
p1271
(dp1272
g4
I19727
sg5
(dp1273
g7
F4.833333333333333
sg8
F0.43478260869565216
sg9
F4.1304347826086953
sg10
F22
sg11
F0
ssg12
S'with Germany but not with her allies. I, therefore, very earnestly'
p1274
sg14
g15
sg16
I19661
sg17
F0.47613119037489904
sg18
g19
sba(ipassage
Passage
p1275
(dp1276
g4
I19798
sg5
(dp1277
g7
F5
sg8
F0.52173913043478259
sg9
F4.0434782608695654
sg10
F22
sg11
F0
ssg12
S'recommend that the Congress immediately declare the United States in a'
p1278
sg14
g15
sg16
I19728
sg17
F0.41044517249698959
sg18
g19
sba(ipassage
Passage
p1279
(dp1280
g4
I19871
sg5
(dp1281
g7
F4.2857142857142856
sg8
F0.59259259259259256
sg9
F3.7777777777777777
sg10
F15.666666666666666
sg11
F0
ssg12
S'state of war with Austria-Hungary. Does it seem strange to you that this'
p1282
sg14
g15
sg16
I19799
sg17
F0.31229542089682799
sg18
g19
sba(ipassage
Passage
p1283
(dp1284
g4
I19945
sg5
(dp1285
g7
F3.7931034482758621
sg8
F0.5357142857142857
sg9
F3.6428571428571428
sg10
F12.333333333333334
sg11
F0
ssg12
S'should be the conclusion of the argument I have just addressed to you? It'
p1286
sg14
g15
sg16
I19872
sg17
F0.32127055286078599
sg18
g19
sba(ipassage
Passage
p1287
(dp1288
g4
I20009
sg5
(dp1289
g7
F4.1111111111111107
sg8
F0.57692307692307687
sg9
F4.0384615384615383
sg10
F11
sg11
F0.038461538461538464
ssg12
S'is not. It is in fact the inevitable logic of what I have said.'
p1290
sg14
g15
sg16
I19946
sg17
F0.35626736666002812
sg18
g19
sba(ipassage
Passage
p1291
(dp1292
g4
I20083
sg5
(dp1293
g7
F4.9444444444444446
sg8
F0.6470588235294118
sg9
F3.9411764705882355
sg10
F18
sg11
F0.058823529411764705
ssg12
S'Austria-Hungary is for the time being not her own mistress but simply the'
p1294
sg14
g15
sg16
I20010
sg17
F0.41770868851157228
sg18
g19
sba(ipassage
Passage
p1295
(dp1296
g4
I20116
sg5
(dp1297
g7
F5.5999999999999996
sg8
F0.5
sg9
F3
sg10
F18
sg11
F0
ssg12
S'vassal of the German Government.'
p1298
sg14
g15
sg16
I20084
sg17
F0.43827211401077776
sg18
g19
sba(ipassage
Passage
p1299
(dp1300
g4
I20116
sg5
(dp1301
g7
F4.375
sg8
F0.46666666666666667
sg9
F4
sg10
F18
sg11
F0.066666666666666666
ssg12
S''
sg14
g15
sg16
I20116
sg17
F0.43476347394344678
sg18
g19
sba(ipassage
Passage
p1302
(dp1303
g4
I20191
sg5
(dp1304
g7
F4.4444444444444446
sg8
F0.46153846153846156
sg9
F4.2692307692307692
sg10
F25.5
sg11
F0.038461538461538464
ssg12
S'We must face the facts as they are and act upon them without sentiment in'
p1305
sg14
g15
sg16
I20118
sg17
F0.40311717905811445
sg18
g19
sba(ipassage
Passage
p1306
(dp1307
g4
I20264
sg5
(dp1308
g7
F4.615384615384615
sg8
F0.52000000000000002
sg9
F4.1200000000000001
sg10
F25.5
sg11
F0
ssg12
S'this stern business. The Government of Austria and Hungary is not acting'
p1309
sg14
g15
sg16
I20192
sg17
F0.34334917621494454
sg18
g19
sba(ipassage
Passage
p1310
(dp1311
g4
I20337
sg5
(dp1312
g7
F4.1785714285714288
sg8
F0.55555555555555558
sg9
F3.7777777777777777
sg10
F24.5
sg11
F0
ssg12
S'upon its own initiative or in response to the wishes and feelings of its'
p1313
sg14
g15
sg16
I20265
sg17
F0.27357934199779999
sg18
g19
sba(ipassage
Passage
p1314
(dp1315
g4
I20408
sg5
(dp1316
g7
F3.9333333333333331
sg8
F0.48275862068965519
sg9
F3.6896551724137931
sg10
F19.666666666666668
sg11
F0
ssg12
S'own peoples, but as the instrument of another nation. We must meet its'
p1317
sg14
g15
sg16
I20338
sg17
F0.30950421034497838
sg18
g19
sba(ipassage
Passage
p1318
(dp1319
g4
I20484
sg5
(dp1320
g7
F4.2727272727272725
sg8
F0.5714285714285714
sg9
F4
sg10
F13
sg11
F0
ssg12
S'force with our own and regard the Central Powers as but one. The war can be'
p1321
sg14
g15
sg16
I20409
sg17
F0.32905060298639388
sg18
g19
sba(ipassage
Passage
p1322
(dp1323
g4
I20524
sg5
(dp1324
g7
F5.666666666666667
sg8
F0.59999999999999998
sg9
F4.7999999999999998
sg10
F10
sg11
F0
ssg12
S'successfully conducted in no other way.'
p1325
sg14
g15
sg16
I20485
sg17
F0.52869061542998441
sg18
g19
sba(ipassage
Passage
p1326
(dp1327
g4
I20524
sg5
(dp1328
g7
F4.2666666666666666
sg8
F0.42857142857142855
sg9
F4
sg10
F12.5
sg11
F0
ssg12
S''
sg14
g15
sg16
I20524
sg17
F0.39697424489674482
sg18
g19
sba(ipassage
Passage
p1329
(dp1330
g4
I20599
sg5
(dp1331
g7
F4.1379310344827589
sg8
F0.4642857142857143
sg9
F3.9285714285714284
sg10
F20.5
sg11
F0
ssg12
S'The same logic would lead also to a declaration of war against Turkey and'
p1332
sg14
g15
sg16
I20526
sg17
F0.3272623896232989
sg18
g19
sba(ipassage
Passage
p1333
(dp1334
g4
I20673
sg5
(dp1335
g7
F3.9333333333333331
sg8
F0.44827586206896552
sg9
F3.7931034482758621
sg10
F25.333333333333332
sg11
F0
ssg12
S'Bulgaria. They also are the tools of Germany, but they are mere tools and'
p1336
sg14
g15
sg16
I20600
sg17
F0.31876793695794231
sg18
g19
sba(ipassage
Passage
p1337
(dp1338
g4
I20746
sg5
(dp1339
g7
F3.774193548387097
sg8
F0.46666666666666667
sg9
F3.7999999999999998
sg10
F30.5
sg11
F0
ssg12
S'do not yet stand in the direct path of our necessary action. We shall go'
p1340
sg14
g15
sg16
I20674
sg17
F0.30314093597640002
sg18
g19
sba(ipassage
Passage
p1341
(dp1342
g4
I20820
sg5
(dp1343
g7
F4.3214285714285712
sg8
F0.51851851851851849
sg9
F3.7407407407407409
sg10
F35
sg11
F0
ssg12
S'wherever the necessities of this war carry us, but it seems to me that we'
p1344
sg14
g15
sg16
I20747
sg17
F0.23474239325822213
sg18
g19
sba(ipassage
Passage
p1345
(dp1346
g4
I20893
sg5
(dp1347
g7
F4.9375
sg8
F0.40000000000000002
sg9
F4.666666666666667
sg10
F35
sg11
F0
ssg12
S'should go only where immediate and practical considerations lead us, and'
p1348
sg14
g15
sg16
I20821
sg17
F0.71286274868121402
sg18
g19
sba(ipassage
Passage
p1349
(dp1350
g4
I20914
sg5
(dp1351
g7
F4.25
sg8
F0.33333333333333331
sg9
F6
sg10
F35
sg11
F0
ssg12
S'not heed any others.'
p1352
sg14
g15
sg16
I20894
sg17
F0.61954242080454891
sg18
g19
sba(ipassage
Passage
p1353
(dp1354
g4
I20914
sg5
(dp1355
g7
F5.583333333333333
sg8
F0.36363636363636365
sg9
F4.3636363636363633
sg10
F46.5
sg11
F0
ssg12
S''
sg14
g15
sg16
I20914
sg17
F0.69988855908902114
sg18
g19
sba(ipassage
Passage
p1356
(dp1357
g4
I20986
sg5
(dp1358
g7
F4.7599999999999998
sg8
F0.5
sg9
F3.9583333333333335
sg10
F58
sg11
F0.041666666666666664
ssg12
S'The financial and military measures which must be adopted will suggest'
p1359
sg14
g15
sg16
I20916
sg17
F0.3745384720796589
sg18
g19
sba(ipassage
Passage
p1360
(dp1361
g4
I21058
sg5
(dp1362
g7
F4.5185185185185182
sg8
F0.53846153846153844
sg9
F3.6923076923076925
sg10
F58
sg11
F0.038461538461538464
ssg12
S'themselves as the war and its undertakings develop, but I will take the'
p1363
sg14
g15
sg16
I20987
sg17
F0.31436341751766533
sg18
g19
sba(ipassage
Passage
p1364
(dp1365
g4
I21134
sg5
(dp1366
g7
F4.0666666666666664
sg8
F0.65517241379310343
sg9
F3.1724137931034484
sg10
F58
sg11
F0
ssg12
S'liberty of proposing to you certain other acts of legislation which seem to'
p1367
sg14
g15
sg16
I21059
sg17
F0.31055971704067137
sg18
g19
sba(ipassage
Passage
p1368
(dp1369
g4
I21210
sg5
(dp1370
g7
F3.7000000000000002
sg8
F0.63157894736842102
sg9
F2.8421052631578947
sg10
F58
sg11
F0
ssg12
S'me to be needed for the support of the war and for the release of our whole'
p1371
sg14
g15
sg16
I21135
sg17
F0.33056715801270625
sg18
g19
sba(ipassage
Passage
p1372
(dp1373
g4
I21228
sg5
(dp1374
g7
F5
sg8
F0.5
sg9
F4
sg10
F58
sg11
F0
ssg12
S'force and energy.'
p1375
sg14
g15
sg16
I21211
sg17
F0.38934193621257623
sg18
g19
sba(ipassage
Passage
p1376
(dp1377
g4
I21228
sg5
(dp1378
g7
F5.2307692307692308
sg8
F0.5
sg9
F3.4166666666666665
sg10
F54
sg11
F0
ssg12
S''
sg14
g15
sg16
I21228
sg17
F0.38945135453256996
sg18
g19
sba(ipassage
Passage
p1379
(dp1380
g4
I21302
sg5
(dp1381
g7
F4.5384615384615383
sg8
F0.40000000000000002
sg9
F3.3599999999999999
sg10
F50
sg11
F0
ssg12
S'It will be necessary to extend in certain particulars the legislation of'
p1382
sg14
g15
sg16
I21230
sg17
F0.35886117926998318
sg18
g19
sba(ipassage
Passage
p1383
(dp1384
g4
I21371
sg5
(dp1385
g7
F4.4814814814814818
sg8
F0.34615384615384615
sg9
F3.8076923076923075
sg10
F50
sg11
F0
ssg12
S'the last session with regard to alien enemies, and also necessary, I'
p1386
sg14
g15
sg16
I21303
sg17
F0.44650507535130302
sg18
g19
sba(ipassage
Passage
p1387
(dp1388
g4
I21447
sg5
(dp1389
g7
F4.791666666666667
sg8
F0.56521739130434778
sg9
F3.9130434782608696
sg10
F50
sg11
F0
ssg12
S'believe, to create a very definite and particular control over the entrance'
p1390
sg14
g15
sg16
I21372
sg17
F0.30027112683565399
sg18
g19
sba(ipassage
Passage
p1391
(dp1392
g4
I21509
sg5
(dp1393
g7
F4.6363636363636367
sg8
F0.59999999999999998
sg9
F4.2000000000000002
sg10
F50
sg11
F0
ssg12
S'and departure of all persons into and from the United States.'
p1394
sg14
g15
sg16
I21448
sg17
F0.32067401349090452
sg18
g19
sba(ipassage
Passage
p1395
(dp1396
g4
I21509
sg5
(dp1397
g7
F5.833333333333333
sg8
F0.36363636363636365
sg9
F5.4545454545454541
sg10
F52.5
sg11
F0
ssg12
S''
sg14
g15
sg16
I21509
sg17
F0.71492506518205179
sg18
g19
sba(ipassage
Passage
p1398
(dp1399
g4
I21584
sg5
(dp1400
g7
F6.1500000000000004
sg8
F0.36842105263157893
sg9
F5.2631578947368425
sg10
F55
sg11
F0
ssg12
S'Legislation should be enacted defining as a criminal offense every wilful'
p1401
sg14
g15
sg16
I21511
sg17
F0.68775391010680087
sg18
g19
sba(ipassage
Passage
p1402
(dp1403
g4
I21653
sg5
(dp1404
g7
F6.2631578947368425
sg8
F0.3888888888888889
sg9
F5
sg10
F55
sg11
F0
ssg12
S'violation of the presidential proclamation relating to alien enemies'
p1405
sg14
g15
sg16
I21585
sg17
F0.66859143694487644
sg18
g19
sba(ipassage
Passage
p1406
(dp1407
g4
I21722
sg5
(dp1408
g7
F4.958333333333333
sg8
F0.39130434782608697
sg9
F4.3913043478260869
sg10
F55
sg11
F0.043478260869565216
ssg12
S'promulgated under section 4o67 of the revised statutes and providing'
p1409
sg14
g15
sg16
I21654
sg17
F0.50886747063584392
sg18
g19
sba(ipassage
Passage
p1410
(dp1411
g4
I21793
sg5
(dp1412
g7
F4.6399999999999997
sg8
F0.375
sg9
F4.166666666666667
sg10
F55
sg11
F0.041666666666666664
ssg12
S'appropriate punishments; and women, as well as men, should be included'
p1413
sg14
g15
sg16
I21723
sg17
F0.4626511254649105
sg18
g19
sba(ipassage
Passage
p1414
(dp1415
g4
I21860
sg5
(dp1416
g7
F5.0909090909090908
sg8
F0.29999999999999999
sg9
F4.7000000000000002
sg10
F55
sg11
F0
ssg12
S'under the terms of the acts placing restraints upon alien enemies.'
p1417
sg14
g15
sg16
I21794
sg17
F0.81216176494828052
sg18
g19
sba(ipassage
Passage
p1418
(dp1419
g4
I21860
sg5
(dp1420
g7
F3.9411764705882355
sg8
F0.5
sg9
F4.1875
sg10
F60
sg11
F0
ssg12
S''
sg14
g15
sg16
I21860
sg17
F0.29164592877181494
sg18
g19
sba(ipassage
Passage
p1421
(dp1422
g4
I21936
sg5
(dp1423
g7
F3.903225806451613
sg8
F0.53333333333333333
sg9
F3.8666666666666667
sg10
F65
sg11
F0
ssg12
S'It is likely that as time goes on many alien enemies will be willing to be'
p1424
sg14
g15
sg16
I21862
sg17
F0.2614696356488021
sg18
g19
sba(ipassage
Passage
p1425
(dp1426
g4
I22012
sg5
(dp1427
g7
F4.2857142857142856
sg8
F0.55555555555555558
sg9
F3.0370370370370372
sg10
F65
sg11
F0
ssg12
S'fed and housed at the expense of the Government in the detention camps, and'
p1428
sg14
g15
sg16
I21937
sg17
F0.30439289269830899
sg18
g19
sba(ipassage
Passage
p1429
(dp1430
g4
I22083
sg5
(dp1431
g7
F5.3043478260869561
sg8
F0.5
sg9
F3.7272727272727271
sg10
F65
sg11
F0.045454545454545456
ssg12
S'it would be the purpose of the legislation I have suggested to confine'
p1432
sg14
g15
sg16
I22013
sg17
F0.42788552165678151
sg18
g19
sba(ipassage
Passage
p1433
(dp1434
g4
I22157
sg5
(dp1435
g7
F5.1904761904761907
sg8
F0.55000000000000004
sg9
F4.5
sg10
F65
sg11
F0.050000000000000003
ssg12
S'offenders among them in the penitentiaries and other similar institutions'
p1436
sg14
g15
sg16
I22084
sg17
F0.46090915246895964
sg18
g19
sba(ipassage
Passage
p1437
(dp1438
g4
I22213
sg5
(dp1439
g7
F4.0909090909090908
sg8
F0.5
sg9
F4.5999999999999996
sg10
F65
sg11
F0
ssg12
S'where they could be made to work as other criminals do.'
p1440
sg14
g15
sg16
I22158
sg17
F0.39061585229674761
sg18
g19
sba(ipassage
Passage
p1441
(dp1442
g4
I22213
sg5
(dp1443
g7
F4.8461538461538458
sg8
F0.5
sg9
F4.75
sg10
F42.5
sg11
F0
ssg12
S''
sg14
g15
sg16
I22213
sg17
F0.5368738936868872
sg18
g19
sba(ipassage
Passage
p1444
(dp1445
g4
I22286
sg5
(dp1446
g7
F4.8399999999999999
sg8
F0.45833333333333331
sg9
F4.083333333333333
sg10
F21
sg11
F0
ssg12
S'Recent experience has convinced me that the Congress must go further in'
p1447
sg14
g15
sg16
I22215
sg17
F0.44183091209663433
sg18
g19
sba(ipassage
Passage
p1448
(dp1449
g4
I22360
sg5
(dp1450
g7
F4.1034482758620694
sg8
F0.42857142857142855
sg9
F3.6428571428571428
sg10
F21
sg11
F0
ssg12
S'authorizing the Government to set limits to prices. The law of supply and'
p1451
sg14
g15
sg16
I22287
sg17
F0.34058589798449596
sg18
g19
sba(ipassage
Passage
p1452
(dp1453
g4
I22432
sg5
(dp1454
g7
F4.6923076923076925
sg8
F0.44
sg9
F4.2800000000000002
sg10
F20
sg11
F0
ssg12
S'demand, I am sorry to say, has been replaced by the law of unrestrained'
p1455
sg14
g15
sg16
I22361
sg17
F0.47885446713390334
sg18
g19
sba(ipassage
Passage
p1456
(dp1457
g4
I22506
sg5
(dp1458
g7
F5.5909090909090908
sg8
F0.33333333333333331
sg9
F4.8571428571428568
sg10
F29.333333333333332
sg11
F0
ssg12
S'selfishness. While we have eliminated profiteering in several branches of'
p1459
sg14
g15
sg16
I22433
sg17
F0.77015038410445791
sg18
g19
sba(ipassage
Passage
p1460
(dp1461
g4
I22576
sg5
(dp1462
g7
F4.6538461538461542
sg8
F0.35999999999999999
sg9
F4.1200000000000001
sg10
F33
sg11
F0
ssg12
S'industry, it still runs impudently rampant in others. The farmers for'
p1463
sg14
g15
sg16
I22507
sg17
F0.52952668958630567
sg18
g19
sba(ipassage
Passage
p1464
(dp1465
g4
I22650
sg5
(dp1466
g7
F4.5925925925925926
sg8
F0.42307692307692307
sg9
F3.9615384615384617
sg10
F48
sg11
F0
ssg12
S'example, complain with a great deal of justice that, while the regulation'
p1467
sg14
g15
sg16
I22577
sg17
F0.37379731471941419
sg18
g19
sba(ipassage
Passage
p1468
(dp1469
g4
I22724
sg5
(dp1470
g7
F4.6923076923076925
sg8
F0.44
sg9
F4.3200000000000003
sg10
F48
sg11
F0
ssg12
S'of food prices restricts their incomes, no restraints are placed upon the'
p1471
sg14
g15
sg16
I22651
sg17
F0.47001602471887582
sg18
g19
sba(ipassage
Passage
p1472
(dp1473
g4
I22796
sg5
(dp1474
g7
F4.833333333333333
sg8
F0.52941176470588236
sg9
F4.3529411764705879
sg10
F48
sg11
F0
ssg12
S'prices of most of the things they must themselves purchase; and similar'
p1475
sg14
g15
sg16
I22725
sg17
F0.40042330232772533
sg18
g19
sba(ipassage
Passage
p1476
(dp1477
g4
I22828
sg5
(dp1478
g7
F5.4000000000000004
sg8
F0.5
sg9
F6
sg10
F48
sg11
F0
ssg12
S'inequities obtain on all sides.'
p1479
sg14
g15
sg16
I22797
sg17
F0.62001652523965467
sg18
g19
sba(ipassage
Passage
p1480
(dp1481
g4
I22828
sg5
(dp1482
g7
F4.8571428571428568
sg8
F0.53846153846153844
sg9
F2.9230769230769229
sg10
F56.5
sg11
F0
ssg12
S''
sg14
g15
sg16
I22828
sg17
F0.34565983140917805
sg18
g19
sba(ipassage
Passage
p1483
(dp1484
g4
I22904
sg5
(dp1485
g7
F4.6296296296296298
sg8
F0.53846153846153844
sg9
F2.8461538461538463
sg10
F65
sg11
F0
ssg12
S'It is imperatively necessary that the consideration of the full use of the'
p1486
sg14
g15
sg16
I22830
sg17
F0.33819795520115209
sg18
g19
sba(ipassage
Passage
p1487
(dp1488
g4
I22980
sg5
(dp1489
g7
F4.6923076923076925
sg8
F0.56000000000000005
sg9
F2.8799999999999999
sg10
F65
sg11
F0
ssg12
S'water power of the country, and also of the consideration of the systematic'
p1490
sg14
g15
sg16
I22905
sg17
F0.33834912726796845
sg18
g19
sba(ipassage
Passage
p1491
(dp1492
g4
I23051
sg5
(dp1493
g7
F4.8399999999999999
sg8
F0.58333333333333337
sg9
F3.8333333333333335
sg10
F65
sg11
F0
ssg12
S'and yet economical development of such of the natural resources of the'
p1494
sg14
g15
sg16
I22981
sg17
F0.32283173556236877
sg18
g19
sba(ipassage
Passage
p1495
(dp1496
g4
I23126
sg5
(dp1497
g7
F5.5217391304347823
sg8
F0.59090909090909094
sg9
F4
sg10
F65
sg11
F0
ssg12
S'country as are still under the control of the Federal Government should be'
p1498
sg14
g15
sg16
I23052
sg17
F0.44236685509998458
sg18
g19
sba(ipassage
Passage
p1499
(dp1500
g4
I23201
sg5
(dp1501
g7
F6.0476190476190474
sg8
F0.40000000000000002
sg9
F4.6500000000000004
sg10
F38
sg11
F0
ssg12
S'immediately resumed and affirmatively and constructively dealt with at the'
p1502
sg14
g15
sg16
I23127
sg17
F0.66957317975880648
sg18
g19
sba(ipassage
Passage
p1503
(dp1504
g4
I23274
sg5
(dp1505
g7
F5.8571428571428568
sg8
F0.30769230769230771
sg9
F5.3076923076923075
sg10
F38
sg11
F0
ssg12
S'earliest possible moment. The pressing need of such legislation is daily'
p1506
sg14
g15
sg16
I23202
sg17
F0.73135797655796375
sg18
g19
sba(ipassage
Passage
p1507
(dp1508
g4
I23297
sg5
(dp1509
g7
F6.666666666666667
sg8
F0.5
sg9
F6.5
sg10
F11
sg11
F0
ssg12
S'becoming more obvious.'
p1510
sg14
g15
sg16
I23275
sg17
F0.58989878630749881
sg18
g19
sba(ipassage
Passage
p1511
(dp1512
g4
I23297
sg5
(dp1513
g7
F5.583333333333333
sg8
F0.36363636363636365
sg9
F3.9090909090909092
sg10
F26
sg11
F0
ssg12
S''
sg14
g15
sg16
I23297
sg17
F0.58368222189096897
sg18
g19
sba(ipassage
Passage
p1514
(dp1515
g4
I23368
sg5
(dp1516
g7
F5.3043478260869561
sg8
F0.40909090909090912
sg9
F4.7272727272727275
sg10
F41
sg11
F0
ssg12
S'The legislation proposed at the last session with regard to regulated'
p1517
sg14
g15
sg16
I23299
sg17
F0.75836884119397696
sg18
g19
sba(ipassage
Passage
p1518
(dp1519
g4
I23443
sg5
(dp1520
g7
F5.291666666666667
sg8
F0.47826086956521741
sg9
F4.6521739130434785
sg10
F41
sg11
F0.043478260869565216
ssg12
S'combinations among our exporters in order to provide for our foreign trade'
p1521
sg14
g15
sg16
I23369
sg17
F0.51651074940895347
sg18
g19
sba(ipassage
Passage
p1522
(dp1523
g4
I23519
sg5
(dp1524
g7
F5.0555555555555554
sg8
F0.52941176470588236
sg9
F4.4705882352941178
sg10
F41
sg11
F0.058823529411764705
ssg12
S'a more effective organization and method of co-operation ought by all means'
p1525
sg14
g15
sg16
I23444
sg17
F0.46169401520025344
sg18
g19
sba(ipassage
Passage
p1526
(dp1527
g4
I23552
sg5
(dp1528
g7
F4.5
sg8
F0.59999999999999998
sg9
F4.5999999999999996
sg10
F41
sg11
F0
ssg12
S'to be completed at this session.'
p1529
sg14
g15
sg16
I23520
sg17
F0.38440113846986756
sg18
g19
sba(ipassage
Passage
p1530
(dp1531
g4
I23552
sg5
(dp1532
g7
F4.5333333333333332
sg8
F0.5
sg9
F3.2857142857142856
sg10
F72
sg11
F0
ssg12
S''
sg14
g15
sg16
I23552
sg17
F0.3125117841188384
sg18
g19
sba(ipassage
Passage
p1533
(dp1534
g4
I23627
sg5
(dp1535
g7
F4
sg8
F0.65517241379310343
sg9
F3.4482758620689653
sg10
F103
sg11
F0
ssg12
S'And I beg that the members of the House of Representatives will permit me'
p1536
sg14
g15
sg16
I23554
sg17
F0.35796218457062245
sg18
g19
sba(ipassage
Passage
p1537
(dp1538
g4
I23703
sg5
(dp1539
g7
F4.7307692307692308
sg8
F0.64000000000000001
sg9
F3.8399999999999999
sg10
F103
sg11
F0
ssg12
S'to express the opinion that it will be impossible to deal in any but a very'
p1540
sg14
g15
sg16
I23628
sg17
F0.38638005830787259
sg18
g19
sba(ipassage
Passage
p1541
(dp1542
g4
I23776
sg5
(dp1543
g7
F4.8799999999999999
sg8
F0.54166666666666663
sg9
F3.7916666666666665
sg10
F103
sg11
F0
ssg12
S'wasteful and extravagant fashion with the enormous appropriations of the'
p1544
sg14
g15
sg16
I23704
sg17
F0.40404272436414485
sg18
g19
sba(ipassage
Passage
p1545
(dp1546
g4
I23850
sg5
(dp1547
g7
F4.3214285714285712
sg8
F0.48148148148148145
sg9
F4.0740740740740744
sg10
F103
sg11
F0
ssg12
S'public moneys which must continue to be made if the war is to be properly'
p1548
sg14
g15
sg16
I23777
sg17
F0.40316610812901038
sg18
g19
sba(ipassage
Passage
p1549
(dp1550
g4
I23924
sg5
(dp1551
g7
F5.2608695652173916
sg8
F0.45454545454545453
sg9
F4.6818181818181817
sg10
F103
sg11
F0
ssg12
S'sustained, unless the House will consent to return to its former practice'
p1552
sg14
g15
sg16
I23851
sg17
F0.55822148885783263
sg18
g19
sba(ipassage
Passage
p1553
(dp1554
g4
I23993
sg5
(dp1555
g7
F5.7142857142857144
sg8
F0.34999999999999998
sg9
F4.9500000000000002
sg10
F103
sg11
F0
ssg12
S'of initiating and preparing all appropriation bills through a single'
p1556
sg14
g15
sg16
I23925
sg17
F0.63133823912226128
sg18
g19
sba(ipassage
Passage
p1557
(dp1558
g4
I24063
sg5
(dp1559
g7
F5.1304347826086953
sg8
F0.36363636363636365
sg9
F4.1363636363636367
sg10
F103
sg11
F0
ssg12
S'committee, in order that responsibility may be centered, expenditures'
p1560
sg14
g15
sg16
I23994
sg17
F0.5415596580145926
sg18
g19
sba(ipassage
Passage
p1561
(dp1562
g4
I24131
sg5
(dp1563
g7
F5.2142857142857144
sg8
F0.38461538461538464
sg9
F4.3076923076923075
sg10
F103
sg11
F0
ssg12
S'standardized and made uniform, and waste and duplication as much as'
p1564
sg14
g15
sg16
I24064
sg17
F0.55620243001577885
sg18
g19
sba(ipassage
Passage
p1565
(dp1566
g4
I24149
sg5
(dp1567
g7
F8
sg8
F0
sg9
F7
sg10
F103
sg11
F0
ssg12
S'possible avoided.'
p1568
sg14
g15
sg16
I24132
sg17
F0.57559643323029441
sg18
g19
sba(ipassage
Passage
p1569
(dp1570
g4
I24149
sg5
(dp1571
g7
F6.7000000000000002
sg8
F0.22222222222222221
sg9
F5
sg10
F77.5
sg11
F0
ssg12
S''
sg14
g15
sg16
I24149
sg17
F0.6339512078333861
sg18
g19
sba(ipassage
Passage
p1572
(dp1573
g4
I24218
sg5
(dp1574
g7
F6.2000000000000002
sg8
F0.36842105263157893
sg9
F5
sg10
F52
sg11
F0
ssg12
S'Additional legislation may also become necessary before the present'
p1575
sg14
g15
sg16
I24151
sg17
F0.68440030876853419
sg18
g19
sba(ipassage
Passage
p1576
(dp1577
g4
I24294
sg5
(dp1578
g7
F5.6363636363636367
sg8
F0.5714285714285714
sg9
F4.1904761904761907
sg10
F52
sg11
F0.047619047619047616
ssg12
S'Congress again adjourns in order to effect the most efficient co-ordination'
p1579
sg14
g15
sg16
I24219
sg17
F0.46349953704910235
sg18
g19
sba(ipassage
Passage
p1580
(dp1581
g4
I24364
sg5
(dp1582
g7
F4.5384615384615383
sg8
F0.47999999999999998
sg9
F3.52
sg10
F52
sg11
F0.040000000000000001
ssg12
S'and operation of the railways and other transportation systems of the'
p1583
sg14
g15
sg16
I24295
sg17
F0.33611371312995603
sg18
g19
sba(ipassage
Passage
p1584
(dp1585
g4
I24435
sg5
(dp1586
g7
F4.666666666666667
sg8
F0.34999999999999998
sg9
F3.8999999999999999
sg10
F52
sg11
F0
ssg12
S'country; but to that I shall, if circumstances should demand, call the'
p1587
sg14
g15
sg16
I24365
sg17
F0.48648546564663536
sg18
g19
sba(ipassage
Passage
p1588
(dp1589
g4
I24480
sg5
(dp1590
g7
F6.5
sg8
F0.20000000000000001
sg9
F4.5999999999999996
sg10
F52
sg11
F0
ssg12
S'attention of Congress upon another occasion.'
p1591
sg14
g15
sg16
I24436
sg17
F0.64437762839657264
sg18
g19
sba(ipassage
Passage
p1592
(dp1593
g4
I24480
sg5
(dp1594
g7
F4.666666666666667
sg8
F0.5
sg9
F4
sg10
F39
sg11
F0
ssg12
S''
sg14
g15
sg16
I24480
sg17
F0.30442043008664188
sg18
g19
sba(ipassage
Passage
p1595
(dp1596
g4
I24556
sg5
(dp1597
g7
F4.1724137931034484
sg8
F0.5
sg9
F3.9642857142857144
sg10
F32.5
sg11
F0
ssg12
S'If I have overlooked anything that ought to be done for the more effective'
p1598
sg14
g15
sg16
I24482
sg17
F0.25945662934006375
sg18
g19
sba(ipassage
Passage
p1599
(dp1600
g4
I24630
sg5
(dp1601
g7
F4.2857142857142856
sg8
F0.55555555555555558
sg9
F3.6296296296296298
sg10
F32.5
sg11
F0
ssg12
S'conduct of the war, your own counsels will supply the omission. What I am'
p1602
sg14
g15
sg16
I24557
sg17
F0.25085287716509469
sg18
g19
sba(ipassage
Passage
p1603
(dp1604
g4
I24703
sg5
(dp1605
g7
F4.8799999999999999
sg8
F0.54166666666666663
sg9
F3.8333333333333335
sg10
F39
sg11
F0
ssg12
S'perfectly clear about is that in the present session of the Congress our'
p1606
sg14
g15
sg16
I24631
sg17
F0.32205832750910873
sg18
g19
sba(ipassage
Passage
p1607
(dp1608
g4
I24776
sg5
(dp1609
g7
F5.0434782608695654
sg8
F0.45454545454545453
sg9
F4.0909090909090908
sg10
F39
sg11
F0
ssg12
S'whole attention and energy should be concentrated on the vigorous, rapid'
p1610
sg14
g15
sg16
I24704
sg17
F0.47340030942135924
sg18
g19
sba(ipassage
Passage
p1611
(dp1612
g4
I24841
sg5
(dp1613
g7
F4.9090909090909092
sg8
F0.40000000000000002
sg9
F4
sg10
F39
sg11
F0
ssg12
S'and successful prosecution of the great task of winning the war.'
p1614
sg14
g15
sg16
I24777
sg17
F0.49640315426120019
sg18
g19
sba(ipassage
Passage
p1615
(dp1616
g4
I24841
sg5
(dp1617
g7
F4.1333333333333337
sg8
F0.6428571428571429
sg9
F3.7142857142857144
sg10
F51.5
sg11
F0.071428571428571425
ssg12
S''
sg14
g15
sg16
I24841
sg17
F0.40114850597550339
sg18
g19
sba(ipassage
Passage
p1618
(dp1619
g4
I24914
sg5
(dp1620
g7
F3.9666666666666668
sg8
F0.58620689655172409
sg9
F3.8275862068965516
sg10
F64
sg11
F0.034482758620689655
ssg12
S'We can do this with all the greater zeal and enthusiasm because we know'
p1621
sg14
g15
sg16
I24843
sg17
F0.29660416052804051
sg18
g19
sba(ipassage
Passage
p1622
(dp1623
g4
I24990
sg5
(dp1624
g7
F3.8125
sg8
F0.4838709677419355
sg9
F3.5483870967741935
sg10
F64
sg11
F0.064516129032258063
ssg12
S'that for us this is a war of high principle, debased by no selfish ambition'
p1625
sg14
g15
sg16
I24915
sg17
F0.39639013731314937
sg18
g19
sba(ipassage
Passage
p1626
(dp1627
g4
I25064
sg5
(dp1628
g7
F3.9666666666666668
sg8
F0.58620689655172409
sg9
F3.7586206896551726
sg10
F64
sg11
F0.068965517241379309
ssg12
S'of conquest or spoliation; because we know, and all the world knows, that'
p1629
sg14
g15
sg16
I24991
sg17
F0.39834797741484546
sg18
g19
sba(ipassage
Passage
p1630
(dp1631
g4
I25136
sg5
(dp1632
g7
F4.8799999999999999
sg8
F0.54166666666666663
sg9
F4.25
sg10
F66.5
sg11
F0
ssg12
S'we have been forced into it to save the very institutions we five under'
p1633
sg14
g15
sg16
I25065
sg17
F0.39004571561735912
sg18
g19
sba(ipassage
Passage
p1634
(dp1635
g4
I25211
sg5
(dp1636
g7
F4.96
sg8
F0.45833333333333331
sg9
F3.9166666666666665
sg10
F66.5
sg11
F0
ssg12
S'from corruption and destruction. The purpose of the Central Powers strikes'
p1637
sg14
g15
sg16
I25137
sg17
F0.41363279024947702
sg18
g19
sba(ipassage
Passage
p1638
(dp1639
g4
I25284
sg5
(dp1640
g7
F4.6923076923076925
sg8
F0.47999999999999998
sg9
F3.96
sg10
F69
sg11
F0
ssg12
S'straight at the very heart of everything we believe in; their methods of'
p1641
sg14
g15
sg16
I25212
sg17
F0.34426791407752338
sg18
g19
sba(ipassage
Passage
p1642
(dp1643
g4
I25357
sg5
(dp1644
g7
F4.7307692307692308
sg8
F0.44
sg9
F3.8799999999999999
sg10
F69
sg11
F0.040000000000000001
ssg12
S'warfare outrage every principle of humanity and of knightly honor; their'
p1645
sg14
g15
sg16
I25285
sg17
F0.39894449384691416
sg18
g19
sba(ipassage
Passage
p1646
(dp1647
g4
I25431
sg5
(dp1648
g7
F4.7307692307692308
sg8
F0.52000000000000002
sg9
F4.2000000000000002
sg10
F69
sg11
F0.040000000000000001
ssg12
S'intrigue has corrupted the very thought and spirit of many of our people;'
p1649
sg14
g15
sg16
I25358
sg17
F0.38902362753644976
sg18
g19
sba(ipassage
Passage
p1650
(dp1651
g4
I25505
sg5
(dp1652
g7
F4.3571428571428568
sg8
F0.48148148148148145
sg9
F4.333333333333333
sg10
F46
sg11
F0.037037037037037035
ssg12
S'their sinister and secret diplomacy has sought to take our very territory'
p1653
sg14
g15
sg16
I25432
sg17
F0.3706276311984596
sg18
g19
sba(ipassage
Passage
p1654
(dp1655
g4
I25581
sg5
(dp1656
g7
F3.967741935483871
sg8
F0.46666666666666667
sg9
F3.8666666666666667
sg10
F46
sg11
F0
ssg12
S'away from us and disrupt the union of the states. Our safety would be at an'
p1657
sg14
g15
sg16
I25506
sg17
F0.26108869738832013
sg18
g19
sba(ipassage
Passage
p1658
(dp1659
g4
I25657
sg5
(dp1660
g7
F4.5555555555555554
sg8
F0.5
sg9
F4
sg10
F17
sg11
F0
ssg12
S'end, our honor forever sullied and brought into contempt, were we to permit'
p1661
sg14
g15
sg16
I25582
sg17
F0.3553245909530417
sg18
g19
sba(ipassage
Passage
p1662
(dp1663
g4
I25729
sg5
(dp1664
g7
F5.2307692307692308
sg8
F0.5
sg9
F4.333333333333333
sg10
F17
sg11
F0
ssg12
S'their triumph. They are striking at the very existence of democracy and'
p1665
sg14
g15
sg16
I25658
sg17
F0.51314459327323636
sg18
g19
sba(ipassage
Passage
p1666
(dp1667
g4
I25738
sg5
(dp1668
g7
F3.7222222222222223
sg8
F0.52941176470588236
sg9
F2.8235294117647061
sg10
F48.5
sg11
F0
ssg12
S''
sg14
g15
sg16
I25738
sg17
F0.32457691289105289
sg18
g19
sba(ipassage
Passage
p1669
(dp1670
g4
I25813
sg5
(dp1671
g7
F4
sg8
F0.55172413793103448
sg9
F3.1724137931034484
sg10
F86
sg11
F0
ssg12
S'It is because it is for us a war of high, disinterested purpose, in which'
p1672
sg14
g15
sg16
I25740
sg17
F0.32559916063981259
sg18
g19
sba(ipassage
Passage
p1673
(dp1674
g4
I25887
sg5
(dp1675
g7
F3.903225806451613
sg8
F0.56666666666666665
sg9
F2.9666666666666668
sg10
F86
sg11
F0
ssg12
S'all the free peoples of the world are banded together for the vindication'
p1676
sg14
g15
sg16
I25814
sg17
F0.33676699960142686
sg18
g19
sba(ipassage
Passage
p1677
(dp1678
g4
I25963
sg5
(dp1679
g7
F3.6774193548387095
sg8
F0.53333333333333333
sg9
F2.9333333333333331
sg10
F86
sg11
F0.033333333333333333
ssg12
S'of right, a war for the preservation of our nation, of all that it has held'
p1680
sg14
g15
sg16
I25888
sg17
F0.34791058159506666
sg18
g19
sba(ipassage
Passage
p1681
(dp1682
g4
I26028
sg5
(dp1683
g7
F4.4615384615384617
sg8
F0.59999999999999998
sg9
F3.3199999999999998
sg10
F86
sg11
F0.040000000000000001
ssg12
S'dear, of principle and of purpose, that we feel ourselves doubly'
p1684
sg14
g15
sg16
I25964
sg17
F0.35174758970412051
sg18
g19
sba(ipassage
Passage
p1685
(dp1686
g4
I26103
sg5
(dp1687
g7
F4.6538461538461542
sg8
F0.59999999999999998
sg9
F3.7200000000000002
sg10
F51
sg11
F0
ssg12
S'constrained to propose for its outcome only that which is righteous and of'
p1688
sg14
g15
sg16
I26029
sg17
F0.28158067120213837
sg18
g19
sba(ipassage
Passage
p1689
(dp1690
g4
I26174
sg5
(dp1691
g7
F4.2592592592592595
sg8
F0.5
sg9
F3.7692307692307692
sg10
F51
sg11
F0
ssg12
S'irreproachable intention, for our foes as well as for our friends. The'
p1692
sg14
g15
sg16
I26104
sg17
F0.20977022774204854
sg18
g19
sba(ipassage
Passage
p1693
(dp1694
g4
I26243
sg5
(dp1695
g7
F4.0344827586206895
sg8
F0.4642857142857143
sg9
F4.1071428571428568
sg10
F16.5
sg11
F0
ssg12
S'cause being just and holy, the settlement must be of like motive and'
p1696
sg14
g15
sg16
I26175
sg17
F0.35888906891490918
sg18
g19
sba(ipassage
Passage
p1697
(dp1698
g4
I26318
sg5
(dp1699
g7
F4.1034482758620694
sg8
F0.5
sg9
F3.8214285714285716
sg10
F17.666666666666668
sg11
F0
ssg12
S'equality. For this we can fight, but for nothing less noble or less worthy'
p1700
sg14
g15
sg16
I26244
sg17
F0.30796358164762833
sg18
g19
sba(ipassage
Passage
p1701
(dp1702
g4
I26390
sg5
(dp1703
g7
F4.0434782608695654
sg8
F0.54545454545454541
sg9
F3.9545454545454546
sg10
F18.5
sg11
F0
ssg12
S'of our traditions. For this cause we entered the war and for this cause'
p1704
sg14
g15
sg16
I26319
sg17
F0.30420797935555011
sg18
g19
sba(ipassage
Passage
p1705
(dp1706
g4
I26434
sg5
(dp1707
g7
F3.8888888888888888
sg8
F0.5
sg9
F4.625
sg10
F20
sg11
F0
ssg12
S'will we battle until the last gun is fired.'
p1708
sg14
g15
sg16
I26391
sg17
F0.4090249801111438
sg18
g19
sba(ipassage
Passage
p1709
(dp1710
g4
I26434
sg5
(dp1711
g7
F3.9375
sg8
F0.66666666666666663
sg9
F4
sg10
F57
sg11
F0
ssg12
S''
sg14
g15
sg16
I26434
sg17
F0.3113805475202206
sg18
g19
sba(ipassage
Passage
p1712
(dp1713
g4
I26507
sg5
(dp1714
g7
F3.838709677419355
sg8
F0.53333333333333333
sg9
F3.6666666666666665
sg10
F94
sg11
F0
ssg12
S'I have spoken plainly because this seems to me the time when it is most'
p1715
sg14
g15
sg16
I26436
sg17
F0.33746127709610813
sg18
g19
sba(ipassage
Passage
p1716
(dp1717
g4
I26583
sg5
(dp1718
g7
F3.806451612903226
sg8
F0.53333333333333333
sg9
F3.1333333333333333
sg10
F94
sg11
F0.033333333333333333
ssg12
S'necessary to speak plainly, in order that all the world may know that, even'
p1719
sg14
g15
sg16
I26508
sg17
F0.34899243058255541
sg18
g19
sba(ipassage
Passage
p1720
(dp1721
g4
I26654
sg5
(dp1722
g7
F3.7999999999999998
sg8
F0.62068965517241381
sg9
F3.5172413793103448
sg10
F94
sg11
F0.034482758620689655
ssg12
S'in the heat and ardor of the struggle and when our whole thought is of'
p1723
sg14
g15
sg16
I26584
sg17
F0.34607713078281521
sg18
g19
sba(ipassage
Passage
p1724
(dp1725
g4
I26726
sg5
(dp1726
g7
F4.0344827586206895
sg8
F0.6071428571428571
sg9
F3.75
sg10
F94
sg11
F0
ssg12
S'carrying the war through to its end, we have not forgotten any ideal or'
p1727
sg14
g15
sg16
I26655
sg17
F0.33744010883203257
sg18
g19
sba(ipassage
Passage
p1728
(dp1729
g4
I26799
sg5
(dp1730
g7
F4.0357142857142856
sg8
F0.66666666666666663
sg9
F3.5185185185185186
sg10
F94
sg11
F0
ssg12
S'principle for which the name of America has been held in honor among the'
p1731
sg14
g15
sg16
I26727
sg17
F0.34634687238959683
sg18
g19
sba(ipassage
Passage
p1732
(dp1733
g4
I26867
sg5
(dp1734
g7
F4.2962962962962967
sg8
F0.53846153846153844
sg9
F4.0769230769230766
sg10
F37.333333333333336
sg11
F0.038461538461538464
ssg12
S'nations and for which it has been our glory to contend in the great'
p1735
sg14
g15
sg16
I26800
sg17
F0.32522168856009503
sg18
g19
sba(ipassage
Passage
p1736
(dp1737
g4
I26942
sg5
(dp1738
g7
F4.1379310344827589
sg8
F0.42857142857142855
sg9
F4.0714285714285712
sg10
F30.25
sg11
F0
ssg12
S'generations that went before us. A supreme moment of history has come. The'
p1739
sg14
g15
sg16
I26868
sg17
F0.35442768840817362
sg18
g19
sba(ipassage
Passage
p1740
(dp1741
g4
I27016
sg5
(dp1742
g7
F3.75
sg8
F0.45161290322580644
sg9
F3.903225806451613
sg10
F14.666666666666666
sg11
F0
ssg12
S'eyes of the people have been opened and they see. The hand of God is laid'
p1743
sg14
g15
sg16
I26943
sg17
F0.35561235790028894
sg18
g19
sba(ipassage
Passage
p1744
(dp1745
g4
I27092
sg5
(dp1746
g7
F3.9629629629629628
sg8
F0.42307692307692307
sg9
F4.384615384615385
sg10
F16.5
sg11
F0
ssg12
S'upon the nations. He will show them favor, I devoutly believe, only if they'
p1747
sg14
g15
sg16
I27017
sg17
F0.42997306587723
sg18
g19
sba(ipassage
Passage
p1748
(dp1749
g4
I27148
sg5
(dp1750
g7
F4.0909090909090908
sg8
F0.5
sg9
F3.8999999999999999
sg10
F24
sg11
F0
ssg12
S'rise to the clear heights of His own justice and mercy.'
p1751
sg14
g15
sg16
I27093
sg17
F0.28876652655246937
sg18
g19
sba(ipassage
Passage
p1752
(dp1753
g4
I27148
sg5
(dp1754
g7
F2.25
sg8
F0
sg9
F6
sg10
F59
sg11
F0
ssg12
S''
sg14
g15
sg16
I27148
sg17
F0.53202802011636074
sg18
g19
sba(ipassage
Passage
p1755
(dp1756
g4
I27153
sg5
(dp1757
g7
F1
sg8
F0
sg9
F6
sg10
F94
sg11
F0
ssg12
S'***'
p1758
sg14
g15
sg16
I27150
sg17
F0.50945069389942599
sg18
g19
sba(ipassage
Passage
p1759
(dp1760
g4
I27153
sg5
(dp1761
g7
F3.8333333333333335
sg8
F0.40000000000000002
sg9
F3.7999999999999998
sg10
F94
sg11
F0
ssg12
S''
sg14
g15
sg16
I27153
sg17
F0.39507241851650909
sg18
g19
sba(ipassage
Passage
p1762
(dp1763
g4
I27181
sg5
(dp1764
g7
F5
sg8
F0.33333333333333331
sg9
F4.5
sg10
F94
sg11
F0
ssg12
S'State of the Union Address'
p1765
sg14
g15
sg16
I27155
sg17
F0.60598504019005339
sg18
g19
sba(ipassage
Passage
p1766
(dp1767
g4
I27196
sg5
(dp1768
g7
F4.5
sg8
F0
sg9
F6
sg10
F94
sg11
F0
ssg12
S'Woodrow Wilson'
p1769
sg14
g15
sg16
I27182
sg17
F0.59386795023978922
sg18
g19
sba(ipassage
Passage
p1770
(dp1771
g4
I27213
sg5
(dp1772
g7
F3.5
sg8
F0
sg9
F5.333333333333333
sg10
F94
sg11
F0
ssg12
S'December 2, 1918'
p1773
sg14
g15
sg16
I27197
sg17
F0.55732579224252654
sg18
g19
sba(ipassage
Passage
p1774
(dp1775
g4
I27213
sg5
(dp1776
g7
F4.5
sg8
F0
sg9
F3.6000000000000001
sg10
F94
sg11
F0
ssg12
S''
sg14
g15
sg16
I27213
sg17
F0.54015085001091645
sg18
g19
sba(ipassage
Passage
p1777
(dp1778
g4
I27241
sg5
(dp1779
g7
F4.5999999999999996
sg8
F0
sg9
F2.75
sg10
F94
sg11
F0
ssg12
S'GENTLEMEN OF THE CONGRESS:'
p1780
sg14
g15
sg16
I27215
sg17
F0.51271826743499105
sg18
g19
sba(ipassage
Passage
p1781
(dp1782
g4
I27241
sg5
(dp1783
g7
F3.7333333333333334
sg8
F0.42857142857142855
sg9
F4.7857142857142856
sg10
F94
sg11
F0
ssg12
S''
sg14
g15
sg16
I27241
sg17
F0.46572308329895123
sg18
g19
sba(ipassage
Passage
p1784
(dp1785
g4
I27311
sg5
(dp1786
g7
F4.5
sg8
F0.44
sg9
F4.6799999999999997
sg10
F94
sg11
F0
ssg12
S'The year that has elapsed since I last stood before you to fulfil my'
p1787
sg14
g15
sg16
I27243
sg17
F0.50756262544626674
sg18
g19
sba(ipassage
Passage
p1788
(dp1789
g4
I27385
sg5
(dp1790
g7
F4.4074074074074074
sg8
F0.5
sg9
F3.7692307692307692
sg10
F94
sg11
F0.038461538461538464
ssg12
S'constitutional duty to give to the Congress from time to time information'
p1791
sg14
g15
sg16
I27312
sg17
F0.37254833636205975
sg18
g19
sba(ipassage
Passage
p1792
(dp1793
g4
I27456
sg5
(dp1794
g7
F4
sg8
F0.42857142857142855
sg9
F3.9285714285714284
sg10
F94
sg11
F0.14285714285714285
ssg12
S'on the state of the Union has been so crowded with great events, great'
p1795
sg14
g15
sg16
I27386
sg17
F0.47536795579021479
sg18
g19
sba(ipassage
Passage
p1796
(dp1797
g4
I27528
sg5
(dp1798
g7
F4.6923076923076925
sg8
F0.52000000000000002
sg9
F4.04
sg10
F94
sg11
F0.12
ssg12
S'processes, and great results that I cannot hope to give you an adequate'
p1799
sg14
g15
sg16
I27457
sg17
F0.47094457808799134
sg18
g19
sba(ipassage
Passage
p1800
(dp1801
g4
I27603
sg5
(dp1802
g7
F5.04
sg8
F0.66666666666666663
sg9
F3.7916666666666665
sg10
F52
sg11
F0
ssg12
S'picture of its transactions or of the far-reaching changes which have been'
p1803
sg14
g15
sg16
I27529
sg17
F0.36216922823486974
sg18
g19
sba(ipassage
Passage
p1804
(dp1805
g4
I27679
sg5
(dp1806
g7
F3.75
sg8
F0.58064516129032262
sg9
F3.6129032258064515
sg10
F49.333333333333336
sg11
F0
ssg12
S'wrought of our nation and of the world. You have yourselves witnessed these'
p1807
sg14
g15
sg16
I27604
sg17
F0.27053309823350419
sg18
g19
sba(ipassage
Passage
p1808
(dp1809
g4
I27753
sg5
(dp1810
g7
F3.4117647058823528
sg8
F0.5757575757575758
sg9
F3.606060606060606
sg10
F27
sg11
F0.030303030303030304
ssg12
S'things, as I have. It is too soon to assess them; and we who stand in the'
p1811
sg14
g15
sg16
I27680
sg17
F0.32141987334704225
sg18
g19
sba(ipassage
Passage
p1812
(dp1813
g4
I27827
sg5
(dp1814
g7
F3.838709677419355
sg8
F0.59999999999999998
sg9
F3.7000000000000002
sg10
F35.5
sg11
F0
ssg12
S'midst of them and are part of them are less qualified than men of another'
p1815
sg14
g15
sg16
I27754
sg17
F0.27826399081697512
sg18
g19
sba(ipassage
Passage
p1816
(dp1817
g4
I27902
sg5
(dp1818
g7
F4.2413793103448274
sg8
F0.5
sg9
F3.9285714285714284
sg10
F35.5
sg11
F0.035714285714285712
ssg12
S'generation will be to say what they mean, or even what they have been. But'
p1819
sg14
g15
sg16
I27828
sg17
F0.30728710741146675
sg18
g19
sba(ipassage
Passage
p1820
(dp1821
g4
I27976
sg5
(dp1822
g7
F4.2857142857142856
sg8
F0.44444444444444442
sg9
F3.8148148148148149
sg10
F28
sg11
F0.037037037037037035
ssg12
S'some great outstanding facts are unmistakable and constitute, in a sense,'
p1823
sg14
g15
sg16
I27903
sg17
F0.35130009227578479
sg18
g19
sba(ipassage
Passage
p1824
(dp1825
g4
I28048
sg5
(dp1826
g7
F4.1428571428571432
sg8
F0.59259259259259256
sg9
F3.2962962962962963
sg10
F28
sg11
F0
ssg12
S'part of the public business with which it is our duty to deal. To state'
p1827
sg14
g15
sg16
I27977
sg17
F0.29358034556165974
sg18
g19
sba(ipassage
Passage
p1828
(dp1829
g4
I28120
sg5
(dp1830
g7
F4.1851851851851851
sg8
F0.61538461538461542
sg9
F3.4230769230769229
sg10
F29
sg11
F0
ssg12
S'them is to set the stage for the legislative and executive action which'
p1831
sg14
g15
sg16
I28049
sg17
F0.29204963663610817
sg18
g19
sba(ipassage
Passage
p1832
(dp1833
g4
I28188
sg5
(dp1834
g7
F3.8571428571428572
sg8
F0.69230769230769229
sg9
F3.6153846153846154
sg10
F29
sg11
F0
ssg12
S'must grow out of them and which we have yet to shape and determine.'
p1835
sg14
g15
sg16
I28121
sg17
F0.32580749653524782
sg18
g19
sba(ipassage
Passage
p1836
(dp1837
g4
I28188
sg5
(dp1838
g7
F4.333333333333333
sg8
F0.35714285714285715
sg9
F5.2142857142857144
sg10
F31
sg11
F0
ssg12
S''
sg14
g15
sg16
I28188
sg17
F0.64031065390690478
sg18
g19
sba(ipassage
Passage
p1839
(dp1840
g4
I28258
sg5
(dp1841
g7
F3.8999999999999999
sg8
F0.37931034482758619
sg9
F4.8275862068965516
sg10
F32
sg11
F0.034482758620689655
ssg12
S'A year ago we had sent 145,918 men overseas. Since then we have sent'
p1842
sg14
g15
sg16
I28190
sg17
F0.4834328153805072
sg18
g19
sba(ipassage
Passage
p1843
(dp1844
g4
I28333
sg5
(dp1845
g7
F3.4848484848484849
sg8
F0.375
sg9
F3.6875
sg10
F55
sg11
F0.03125
ssg12
S'1,950,513, an average of 162,542 each month, the number in fact rising, in'
p1846
sg14
g15
sg16
I28259
sg17
F0.37042974110164617
sg18
g19
sba(ipassage
Passage
p1847
(dp1848
g4
I28399
sg5
(dp1849
g7
F3.896551724137931
sg8
F0.35714285714285715
sg9
F3.8571428571428572
sg10
F55
sg11
F0
ssg12
S'May last, to 245,951, in June to 278,760, in July to 307,182, and'
p1850
sg14
g15
sg16
I28334
sg17
F0.39294198298557492
sg18
g19
sba(ipassage
Passage
p1851
(dp1852
g4
I28470
sg5
(dp1853
g7
F4.958333333333333
sg8
F0.34782608695652173
sg9
F4.8260869565217392
sg10
F48.5
sg11
F0
ssg12
S'continuing to reach similar figures in August and September, in August'
p1854
sg14
g15
sg16
I28400
sg17
F0.85333086435909888
sg18
g19
sba(ipassage
Passage
p1855
(dp1856
g4
I28541
sg5
(dp1857
g7
F4.7599999999999998
sg8
F0.29166666666666669
sg9
F5.125
sg10
F48.5
sg11
F0
ssg12
S'289,570 and in September 257,438. No such movement of troops ever took'
p1858
sg14
g15
sg16
I28471
sg17
F0.76361511820468719
sg18
g19
sba(ipassage
Passage
p1859
(dp1860
g4
I28612
sg5
(dp1861
g7
F5.25
sg8
F0.30434782608695654
sg9
F4.8695652173913047
sg10
F42
sg11
F0
ssg12
S'place before, across three thousand miles of sea, followed by adequate'
p1862
sg14
g15
sg16
I28542
sg17
F0.85941982616706236
sg18
g19
sba(ipassage
Passage
p1863
(dp1864
g4
I28688
sg5
(dp1865
g7
F6.2380952380952381
sg8
F0.40000000000000002
sg9
F4.9000000000000004
sg10
F42
sg11
F0.050000000000000003
ssg12
S'equipment and supplies, and carried safely through extraordinary dangers of'
p1866
sg14
g15
sg16
I28613
sg17
F0.5764805120607277
sg18
g19
sba(ipassage
Passage
p1867
(dp1868
g4
I28763
sg5
(dp1869
g7
F5.7727272727272725
sg8
F0.42857142857142855
sg9
F4.9523809523809526
sg10
F38.5
sg11
F0.047619047619047616
ssg12
S'attack,-dangers which were alike strange and infinitely difficult to guard'
p1870
sg14
g15
sg16
I28689
sg17
F0.5726722877855005
sg18
g19
sba(ipassage
Passage
p1871
(dp1872
g4
I28837
sg5
(dp1873
g7
F4.4444444444444446
sg8
F0.42307692307692307
sg9
F4.6923076923076925
sg10
F38.5
sg11
F0
ssg12
S'against. In all this movement only seven hundred and fifty-eight men were'
p1874
sg14
g15
sg16
I28764
sg17
F0.54994029545867673
sg18
g19
sba(ipassage
Passage
p1875
(dp1876
g4
I28909
sg5
(dp1877
g7
F4.458333333333333
sg8
F0.39130434782608697
sg9
F5.1739130434782608
sg10
F35
sg11
F0
ssg12
S'lost by enemy attack, six hundred and thirty of whom were upon a single'
p1878
sg14
g15
sg16
I28838
sg17
F0.64778249468576898
sg18
g19
sba(ipassage
Passage
p1879
(dp1880
g4
I28967
sg5
(dp1881
g7
F5.4444444444444446
sg8
F0.375
sg9
F5.875
sg10
F35
sg11
F0
ssg12
S'English transport which was sunk near the Orkney Islands.'
p1882
sg14
g15
sg16
I28910
sg17
F0.68753501903175018
sg18
g19
sba(ipassage
Passage
p1883
(dp1884
g4
I28967
sg5
(dp1885
g7
F3.8125
sg8
F0.46666666666666667
sg9
F3.8666666666666667
sg10
F25.5
sg11
F0
ssg12
S''
sg14
g15
sg16
I28967
sg17
F0.31498505960955692
sg18
g19
sba(ipassage
Passage
p1886
(dp1887
g4
I29036
sg5
(dp1888
g7
F3.7586206896551726
sg8
F0.5
sg9
F3.9642857142857144
sg10
F36
sg11
F0
ssg12
S'I need not tell you what lay back of this great movement of men and'
p1889
sg14
g15
sg16
I28969
sg17
F0.28554322574493618
sg18
g19
sba(ipassage
Passage
p1890
(dp1891
g4
I29106
sg5
(dp1892
g7
F4.4615384615384617
sg8
F0.59999999999999998
sg9
F3.2799999999999998
sg10
F36
sg11
F0.040000000000000001
ssg12
S'material. It is not invidious to say that back of it lay a supporting'
p1893
sg14
g15
sg16
I29037
sg17
F0.33017049761103123
sg18
g19
sba(ipassage
Passage
p1894
(dp1895
g4
I29178
sg5
(dp1896
g7
F4.96
sg8
F0.54166666666666663
sg9
F3.5416666666666665
sg10
F56
sg11
F0.041666666666666664
ssg12
S'organization of the industries of the country and of all its productive'
p1897
sg14
g15
sg16
I29107
sg17
F0.3656847354674404
sg18
g19
sba(ipassage
Passage
p1898
(dp1899
g4
I29253
sg5
(dp1900
g7
F4.9199999999999999
sg8
F0.5
sg9
F4.166666666666667
sg10
F56
sg11
F0
ssg12
S'activities more complete, more thorough in method and effective in result,'
p1901
sg14
g15
sg16
I29179
sg17
F0.40106644208873893
sg18
g19
sba(ipassage
Passage
p1902
(dp1903
g4
I29324
sg5
(dp1904
g7
F5.083333333333333
sg8
F0.47826086956521741
sg9
F4.5652173913043477
sg10
F46
sg11
F0
ssg12
S'more spirited and unanimous in purpose and effort than any other great'
p1905
sg14
g15
sg16
I29254
sg17
F0.57098263606209287
sg18
g19
sba(ipassage
Passage
p1906
(dp1907
g4
I29399
sg5
(dp1908
g7
F4.8076923076923075
sg8
F0.52000000000000002
sg9
F4.2400000000000002
sg10
F46
sg11
F0
ssg12
S'belligerent had been able to effect. We profited greatly by the experience'
p1909
sg14
g15
sg16
I29325
sg17
F0.37256722308181239
sg18
g19
sba(ipassage
Passage
p1910
(dp1911
g4
I29475
sg5
(dp1912
g7
F4.96
sg8
F0.41666666666666669
sg9
F4.166666666666667
sg10
F36
sg11
F0
ssg12
S'of the nations which had already been engaged for nearly three years in the'
p1913
sg14
g15
sg16
I29400
sg17
F0.53143855578580657
sg18
g19
sba(ipassage
Passage
p1914
(dp1915
g4
I29547
sg5
(dp1916
g7
F5.2173913043478262
sg8
F0.36363636363636365
sg9
F4.1363636363636367
sg10
F24.333333333333332
sg11
F0
ssg12
S'exigent and exacting business, their every resource and every executive'
p1917
sg14
g15
sg16
I29476
sg17
F0.61124718079493245
sg18
g19
sba(ipassage
Passage
p1918
(dp1919
g4
I29617
sg5
(dp1920
g7
F4.916666666666667
sg8
F0.52173913043478259
sg9
F4
sg10
F24.333333333333332
sg11
F0
ssg12
S'proficiency taxed to the utmost. We were their pupils. But we learned'
p1921
sg14
g15
sg16
I29548
sg17
F0.38414095381339897
sg18
g19
sba(ipassage
Passage
p1922
(dp1923
g4
I29689
sg5
(dp1924
g7
F4.5199999999999996
sg8
F0.58333333333333337
sg9
F3.7916666666666665
sg10
F33
sg11
F0
ssg12
S'quickly and acted with a promptness and a readiness of cooperation that'
p1925
sg14
g15
sg16
I29618
sg17
F0.27530280820565506
sg18
g19
sba(ipassage
Passage
p1926
(dp1927
g4
I29755
sg5
(dp1928
g7
F5.2222222222222223
sg8
F0.47058823529411764
sg9
F4.2941176470588234
sg10
F33
sg11
F0
ssg12
S'justify our great pride that we were able to serve the world with'
p1929
sg14
g15
sg16
I29690
sg17
F0.53775956675118364
sg18
g19
sba(ipassage
Passage
p1930
(dp1931
g4
I29801
sg5
(dp1932
g7
F8.1999999999999993
sg8
F0.25
sg9
F5.25
sg10
F33
sg11
F0
ssg12
S'unparalleled energy and quick accomplishment.'
p1933
sg14
g15
sg16
I29756
sg17
F0.58405157616300329
sg18
g19
sba(ipassage
Passage
p1934
(dp1935
g4
I29801
sg5
(dp1936
g7
F5.5
sg8
F0.46153846153846156
sg9
F3.4615384615384617
sg10
F44.5
sg11
F0
ssg12
S''
sg14
g15
sg16
I29801
sg17
F0.45271681114782558
sg18
g19
sba(ipassage
Passage
p1937
(dp1938
g4
I29876
sg5
(dp1939
g7
F4.4285714285714288
sg8
F0.40740740740740738
sg9
F3.5185185185185186
sg10
F56
sg11
F0.037037037037037035
ssg12
S'But it is not the physical scale and executive efficiency of preparation,'
p1940
sg14
g15
sg16
I29803
sg17
F0.3619028616848885
sg18
g19
sba(ipassage
Passage
p1941
(dp1942
g4
I29951
sg5
(dp1943
g7
F4
sg8
F0.48275862068965519
sg9
F3.3448275862068964
sg10
F56
sg11
F0.034482758620689655
ssg12
S'supply, equipment and despatch that I would dwell upon, but the mettle and'
p1944
sg14
g15
sg16
I29877
sg17
F0.30329643346940477
sg18
g19
sba(ipassage
Passage
p1945
(dp1946
g4
I30024
sg5
(dp1947
g7
F3.9666666666666668
sg8
F0.51724137931034486
sg9
F3.3103448275862069
sg10
F42.5
sg11
F0
ssg12
S'quality of the officers and men we sent over and of the sailors who kept'
p1948
sg14
g15
sg16
I29952
sg17
F0.27002256526127433
sg18
g19
sba(ipassage
Passage
p1949
(dp1950
g4
I30099
sg5
(dp1951
g7
F4.4285714285714288
sg8
F0.40740740740740738
sg9
F4.333333333333333
sg10
F42.5
sg11
F0
ssg12
S'the seas, and the spirit of the nation that stood behind them. No soldiers'
p1952
sg14
g15
sg16
I30025
sg17
F0.46807374110585637
sg18
g19
sba(ipassage
Passage
p1953
(dp1954
g4
I30175
sg5
(dp1955
g7
F5.333333333333333
sg8
F0.47826086956521741
sg9
F5.0869565217391308
sg10
F29
sg11
F0.043478260869565216
ssg12
S'or sailors ever proved themselves more quickly ready for the test of battle'
p1956
sg14
g15
sg16
I30100
sg17
F0.55256984486299765
sg18
g19
sba(ipassage
Passage
p1957
(dp1958
g4
I30251
sg5
(dp1959
g7
F4.7999999999999998
sg8
F0.5
sg9
F4.5
sg10
F35
sg11
F0.041666666666666664
ssg12
S'or acquitted themselves with more splendid courage and achievement when put'
p1960
sg14
g15
sg16
I30176
sg17
F0.44426286328365955
sg18
g19
sba(ipassage
Passage
p1961
(dp1962
g4
I30320
sg5
(dp1963
g7
F4.4230769230769234
sg8
F0.47999999999999998
sg9
F4.1600000000000001
sg10
F35
sg11
F0.040000000000000001
ssg12
S'to the test. Those of us who played some part in directing the great'
p1964
sg14
g15
sg16
I30252
sg17
F0.37116112182275235
sg18
g19
sba(ipassage
Passage
p1965
(dp1966
g4
I30392
sg5
(dp1967
g7
F4.6538461538461542
sg8
F0.56000000000000005
sg9
F4.0800000000000001
sg10
F41
sg11
F0.040000000000000001
ssg12
S'processes by which the war was pushed irresistibly forward to the final'
p1968
sg14
g15
sg16
I30321
sg17
F0.35288708282145376
sg18
g19
sba(ipassage
Passage
p1969
(dp1970
g4
I30467
sg5
(dp1971
g7
F4.5925925925925926
sg8
F0.5
sg9
F4.2307692307692308
sg10
F70
sg11
F0
ssg12
S'triumph may now forget all that and delight our thoughts with the story of'
p1972
sg14
g15
sg16
I30393
sg17
F0.36205214627833282
sg18
g19
sba(ipassage
Passage
p1973
(dp1974
g4
I30543
sg5
(dp1975
g7
F4.7599999999999998
sg8
F0.41666666666666669
sg9
F4.166666666666667
sg10
F70
sg11
F0
ssg12
S'what our men did. Their officers understood the grim and exacting task they'
p1976
sg14
g15
sg16
I30468
sg17
F0.47634725159168156
sg18
g19
sba(ipassage
Passage
p1977
(dp1978
g4
I30609
sg5
(dp1979
g7
F4.9130434782608692
sg8
F0.45454545454545453
sg9
F4
sg10
F99
sg11
F0
ssg12
S'had undertaken and performed it with an audacity, efficiency, and'
p1980
sg14
g15
sg16
I30544
sg17
F0.45518525335382171
sg18
g19
sba(ipassage
Passage
p1981
(dp1982
g4
I30677
sg5
(dp1983
g7
F5.5
sg8
F0.38095238095238093
sg9
F4.2380952380952381
sg10
F99
sg11
F0
ssg12
S'unhesitating courage that touch the story of convoy and battle with'
p1984
sg14
g15
sg16
I30610
sg17
F0.57081406807835655
sg18
g19
sba(ipassage
Passage
p1985
(dp1986
g4
I30751
sg5
(dp1987
g7
F4.666666666666667
sg8
F0.38461538461538464
sg9
F4
sg10
F99
sg11
F0.038461538461538464
ssg12
S'imperishable distinction at every turn, whether the enterprise were great'
p1988
sg14
g15
sg16
I30678
sg17
F0.45605706246052891
sg18
g19
sba(ipassage
Passage
p1989
(dp1990
g4
I30826
sg5
(dp1991
g7
F4.0999999999999996
sg8
F0.41379310344827586
sg9
F4.068965517241379
sg10
F99
sg11
F0.034482758620689655
ssg12
S'or small, from their great chiefs, Pershing and Sims, down to the youngest'
p1992
sg14
g15
sg16
I30752
sg17
F0.41368326638613562
sg18
g19
sba(ipassage
Passage
p1993
(dp1994
g4
I30900
sg5
(dp1995
g7
F4.4444444444444446
sg8
F0.5
sg9
F3.7307692307692308
sg10
F99
sg11
F0
ssg12
S'lieutenant; and their men were worthy of them,-such men as hardly need to'
p1996
sg14
g15
sg16
I30827
sg17
F0.37092440474118715
sg18
g19
sba(ipassage
Passage
p1997
(dp1998
g4
I30971
sg5
(dp1999
g7
F4.6923076923076925
sg8
F0.56000000000000005
sg9
F4
sg10
F99
sg11
F0
ssg12
S'be commanded, and go to their terrible adventure blithely and with the'
p2000
sg14
g15
sg16
I30901
sg17
F0.38977134271753899
sg18
g19
sba(ipassage
Passage
p2001
(dp2002
g4
I31047
sg5
(dp2003
g7
F4.4642857142857144
sg8
F0.59259259259259256
sg9
F3.8888888888888888
sg10
F59.666666666666664
sg11
F0.037037037037037035
ssg12
S'quick intelligence of those who know just what it is they would accomplish.'
p2004
sg14
g15
sg16
I30972
sg17
F0.31459462297288637
sg18
g19
sba(ipassage
Passage
p2005
(dp2006
g4
I31124
sg5
(dp2007
g7
F3.606060606060606
sg8
F0.5625
sg9
F3.84375
sg10
F40
sg11
F0.03125
ssg12
S'I am proud to be the fellow-countryman of men of such stuff and valor. Those'
p2008
sg14
g15
sg16
I31048
sg17
F0.2983038832490264
sg18
g19
sba(ipassage
Passage
p2009
(dp2010
g4
I31198
sg5
(dp2011
g7
F3.71875
sg8
F0.4838709677419355
sg9
F4.290322580645161
sg10
F66
sg11
F0
ssg12
S'of us who stayed at home did our duty; the war could not have been won or'
p2012
sg14
g15
sg16
I31125
sg17
F0.3421381037987769
sg18
g19
sba(ipassage
Passage
p2013
(dp2014
g4
I31273
sg5
(dp2015
g7
F3.9666666666666668
sg8
F0.44827586206896552
sg9
F4.7586206896551726
sg10
F66
sg11
F0
ssg12
S'the gallant men who fought it given their opportunity to win it otherwise;'
p2016
sg14
g15
sg16
I31199
sg17
F0.45416377160320387
sg18
g19
sba(ipassage
Passage
p2017
(dp2018
g4
I31344
sg5
(dp2019
g7
F3.870967741935484
sg8
F0.5
sg9
F4.7333333333333334
sg10
F66
sg11
F0
ssg12
S'but for many a long day we shall think ourselves "accurs\'d we were not'
p2020
sg14
g15
sg16
I31274
sg17
F0.40993351887939566
sg18
g19
sba(ipassage
Passage
p2021
(dp2022
g4
I31420
sg5
(dp2023
g7
F4.3571428571428568
sg8
F0.44444444444444442
sg9
F4.7407407407407405
sg10
F31.333333333333332
sg11
F0
ssg12
S'there, and hold our manhoods cheap while any speaks that fought" with these'
p2024
sg14
g15
sg16
I31345
sg17
F0.51423180279563663
sg18
g19
sba(ipassage
Passage
p2025
(dp2026
g4
I31492
sg5
(dp2027
g7
F4.2142857142857144
sg8
F0.51851851851851849
sg9
F4.5555555555555554
sg10
F31.333333333333332
sg11
F0
ssg12
S'at St. Mihiel or Thierry. The memory of those days of triumphant battle'
p2028
sg14
g15
sg16
I31421
sg17
F0.38322119106956276
sg18
g19
sba(ipassage
Passage
p2029
(dp2030
g4
I31565
sg5
(dp2031
g7
F3.8333333333333335
sg8
F0.41379310344827586
sg9
F4.7241379310344831
sg10
F24
sg11
F0
ssg12
S'will go with these fortunate men to their graves; and each will have his'
p2032
sg14
g15
sg16
I31493
sg17
F0.47352935667904722
sg18
g19
sba(ipassage
Passage
p2033
(dp2034
g4
I31633
sg5
(dp2035
g7
F3.8846153846153846
sg8
F0.32000000000000001
sg9
F5.2800000000000002
sg10
F45.666666666666664
sg11
F0
ssg12
S'favorite memory. "Old men forget; yet all shall be forgot, but hell'
p2036
sg14
g15
sg16
I31566
sg17
F0.5841214375549556
sg18
g19
sba(ipassage
Passage
p2037
(dp2038
g4
I31687
sg5
(dp2039
g7
F4.0909090909090908
sg8
F0.5
sg9
F5.5
sg10
F56
sg11
F0
ssg12
S'remember with advantages what feats he did that day!"'
p2040
sg14
g15
sg16
I31634
sg17
F0.52716468997138211
sg18
g19
sba(ipassage
Passage
p2041
(dp2042
g4
I31687
sg5
(dp2043
g7
F3.6875
sg8
F0.53333333333333333
sg9
F4.1333333333333337
sg10
F89
sg11
F0
ssg12
S''
sg14
g15
sg16
I31687
sg17
F0.35280611221713842
sg18
g19
sba(ipassage
Passage
p2044
(dp2045
g4
I31761
sg5
(dp2046
g7
F4.0344827586206895
sg8
F0.5714285714285714
sg9
F4.1071428571428568
sg10
F89
sg11
F0
ssg12
S'What we all thank God for with deepest gratitude is that our men went in'
p2047
sg14
g15
sg16
I31689
sg17
F0.34101355198717426
sg18
g19
sba(ipassage
Passage
p2048
(dp2049
g4
I31834
sg5
(dp2050
g7
F4.1071428571428568
sg8
F0.55555555555555558
sg9
F3.9629629629629628
sg10
F89
sg11
F0
ssg12
S'force into the line of battle just at the critical moment when the whole'
p2051
sg14
g15
sg16
I31762
sg17
F0.33059240433650078
sg18
g19
sba(ipassage
Passage
p2052
(dp2053
g4
I31904
sg5
(dp2054
g7
F4.0344827586206895
sg8
F0.5
sg9
F3.8928571428571428
sg10
F89
sg11
F0
ssg12
S'fate of the world seemed to hang in the balance and threw their fresh'
p2055
sg14
g15
sg16
I31835
sg17
F0.33688876567818871
sg18
g19
sba(ipassage
Passage
p2056
(dp2057
g4
I31980
sg5
(dp2058
g7
F4.2068965517241379
sg8
F0.6071428571428571
sg9
F3.7857142857142856
sg10
F89
sg11
F0.035714285714285712
ssg12
S'strength into the ranks of freedom in time to turn the whole tide and sweep'
p2059
sg14
g15
sg16
I31905
sg17
F0.34202580837866187
sg18
g19
sba(ipassage
Passage
p2060
(dp2061
g4
I32054
sg5
(dp2062
g7
F4.032258064516129
sg8
F0.40000000000000002
sg9
F4.1333333333333337
sg10
F59
sg11
F0.033333333333333333
ssg12
S'of the fateful struggle,-turn it once for all, so that thenceforth it was'
p2063
sg14
g15
sg16
I31981
sg17
F0.37982838701872834
sg18
g19
sba(ipassage
Passage
p2064
(dp2065
g4
I32130
sg5
(dp2066
g7
F4
sg8
F0.40000000000000002
sg9
F4.166666666666667
sg10
F59
sg11
F0
ssg12
S'back, back, back for their enemies, always back, never again forward! After'
p2067
sg14
g15
sg16
I32055
sg17
F0.38575965371807963
sg18
g19
sba(ipassage
Passage
p2068
(dp2069
g4
I32204
sg5
(dp2070
g7
F4.4230769230769234
sg8
F0.59999999999999998
sg9
F4.5199999999999996
sg10
F29
sg11
F0
ssg12
S'that it was only a scant four months before the commanders of the Central'
p2071
sg14
g15
sg16
I32131
sg17
F0.37465423175336171
sg18
g19
sba(ipassage
Passage
p2072
(dp2073
g4
I32270
sg5
(dp2074
g7
F4.7857142857142856
sg8
F0.53846153846153844
sg9
F4.8461538461538458
sg10
F29
sg11
F0
ssg12
S'Empires knew themselves beaten; and now their very empires are in'
p2075
sg14
g15
sg16
I32205
sg17
F0.50355179338957357
sg18
g19
sba(ipassage
Passage
p2076
(dp2077
g4
I32283
sg5
(dp2078
g7
F6
sg8
F0
sg9
F6
sg10
F29
sg11
F0
ssg12
S'liquidation!'
p2079
sg14
g15
sg16
I32271
sg17
F0.62142188887044481
sg18
g19
sba(ipassage
Passage
p2080
(dp2081
g4
I32283
sg5
(dp2082
g7
F3.5882352941176472
sg8
F0.5625
sg9
F3.6875
sg10
F25.5
sg11
F0
ssg12
S''
sg14
g15
sg16
I32283
sg17
F0.30592739492409998
sg18
g19
sba(ipassage
Passage
p2083
(dp2084
g4
I32359
sg5
(dp2085
g7
F4.0999999999999996
sg8
F0.48275862068965519
sg9
F4.2758620689655169
sg10
F19.5
sg11
F0
ssg12
S'And throughout it all how fine the spirit of the nation was: what unity of'
p2086
sg14
g15
sg16
I32285
sg17
F0.36508291535787118
sg18
g19
sba(ipassage
Passage
p2087
(dp2088
g4
I32434
sg5
(dp2089
g7
F4.7407407407407405
sg8
F0.34615384615384615
sg9
F4.6923076923076925
sg10
F27
sg11
F0
ssg12
S'purpose, what untiring zeal! What elevation of purpose ran through all its'
p2090
sg14
g15
sg16
I32360
sg17
F0.70193142921221052
sg18
g19
sba(ipassage
Passage
p2091
(dp2092
g4
I32510
sg5
(dp2093
g7
F4.3928571428571432
sg8
F0.48148148148148145
sg9
F3.9629629629629628
sg10
F29.5
sg11
F0
ssg12
S'splendid display of strength, its untiring accomplishment! I have said that'
p2094
sg14
g15
sg16
I32435
sg17
F0.29533571130592351
sg18
g19
sba(ipassage
Passage
p2095
(dp2096
g4
I32583
sg5
(dp2097
g7
F3.8333333333333335
sg8
F0.65517241379310343
sg9
F3.5517241379310347
sg10
F42
sg11
F0
ssg12
S'those of us who stayed at home to do the work of organization and supply'
p2098
sg14
g15
sg16
I32511
sg17
F0.30064568921395507
sg18
g19
sba(ipassage
Passage
p2099
(dp2100
g4
I32655
sg5
(dp2101
g7
F3.7096774193548385
sg8
F0.6333333333333333
sg9
F3.9333333333333331
sg10
F44.5
sg11
F0.033333333333333333
ssg12
S'will always wish that we had been with the men whom we sustained by our'
p2102
sg14
g15
sg16
I32584
sg17
F0.31411806124376218
sg18
g19
sba(ipassage
Passage
p2103
(dp2104
g4
I32728
sg5
(dp2105
g7
F3.7999999999999998
sg8
F0.55172413793103448
sg9
F4.2758620689655169
sg10
F44.5
sg11
F0.034482758620689655
ssg12
S'labor; but we can never be ashamed. It has been an inspiring thing to be'
p2106
sg14
g15
sg16
I32656
sg17
F0.32527732414038435
sg18
g19
sba(ipassage
Passage
p2107
(dp2108
g4
I32798
sg5
(dp2109
g7
F4.2962962962962967
sg8
F0.53846153846153844
sg9
F3.9615384615384617
sg10
F47
sg11
F0
ssg12
S'here in the midst of fine men who had turned aside from every private'
p2110
sg14
g15
sg16
I32729
sg17
F0.21549007901653888
sg18
g19
sba(ipassage
Passage
p2111
(dp2112
g4
I32871
sg5
(dp2113
g7
F4.5769230769230766
sg8
F0.52000000000000002
sg9
F3.3999999999999999
sg10
F45
sg11
F0
ssg12
S'interest of their own and devoted the whole of their trained capacity to'
p2114
sg14
g15
sg16
I32799
sg17
F0.27145138452878592
sg18
g19
sba(ipassage
Passage
p2115
(dp2116
g4
I32942
sg5
(dp2117
g7
F5.5217391304347823
sg8
F0.31818181818181818
sg9
F4
sg10
F45
sg11
F0
ssg12
S'the tasks that supplied the sinews of the whole great undertaking! The'
p2118
sg14
g15
sg16
I32872
sg17
F0.63014674123660175
sg18
g19
sba(ipassage
Passage
p2119
(dp2120
g4
I33018
sg5
(dp2121
g7
F5.5652173913043477
sg8
F0.31818181818181818
sg9
F4.4090909090909092
sg10
F43
sg11
F0.045454545454545456
ssg12
S'patriotism, the unselfishness, the thoroughgoing devotion and distinguished'
p2122
sg14
g15
sg16
I32943
sg17
F0.57639086702659148
sg18
g19
sba(ipassage
Passage
p2123
(dp2124
g4
I33089
sg5
(dp2125
g7
F4.1724137931034484
sg8
F0.42857142857142855
sg9
F4.0714285714285712
sg10
F43
sg11
F0.035714285714285712
ssg12
S'capacity that marked their toilsome labors, day after day, month after'
p2126
sg14
g15
sg16
I33019
sg17
F0.35832576382381992
sg18
g19
sba(ipassage
Passage
p2127
(dp2128
g4
I33165
sg5
(dp2129
g7
F3.935483870967742
sg8
F0.53333333333333333
sg9
F3.5333333333333332
sg10
F19.333333333333332
sg11
F0
ssg12
S'month, have made them fit mates and comrades of the men in the trenches and'
p2130
sg14
g15
sg16
I33090
sg17
F0.29816965661402567
sg18
g19
sba(ipassage
Passage
p2131
(dp2132
g4
I33241
sg5
(dp2133
g7
F5.25
sg8
F0.34782608695652173
sg9
F4.3478260869565215
sg10
F33.25
sg11
F0
ssg12
S'on the sea. And not the men here in Washington only. They have but directed'
p2134
sg14
g15
sg16
I33166
sg17
F0.70501539510265254
sg18
g19
sba(ipassage
Passage
p2135
(dp2136
g4
I33314
sg5
(dp2137
g7
F5
sg8
F0.21739130434782608
sg9
F4.7826086956521738
sg10
F41
sg11
F0.043478260869565216
ssg12
S'the vast achievement. Throughout innumerable factories, upon innumerable'
p2138
sg14
g15
sg16
I33242
sg17
F0.60264910412419626
sg18
g19
sba(ipassage
Passage
p2139
(dp2140
g4
I33382
sg5
(dp2141
g7
F3.9655172413793105
sg8
F0.4642857142857143
sg9
F3.6428571428571428
sg10
F75
sg11
F0.071428571428571425
ssg12
S'farms, in the depths of coal mines and iron mines and copper mines,'
p2142
sg14
g15
sg16
I33315
sg17
F0.41812603444010127
sg18
g19
sba(ipassage
Passage
p2143
(dp2144
g4
I33455
sg5
(dp2145
g7
F3.75
sg8
F0.5161290322580645
sg9
F3.129032258064516
sg10
F75
sg11
F0.064516129032258063
ssg12
S'wherever the stuffs of industry were to be obtained and prepared, in the'
p2146
sg14
g15
sg16
I33383
sg17
F0.39221599642345317
sg18
g19
sba(ipassage
Passage
p2147
(dp2148
g4
I33529
sg5
(dp2149
g7
F3.5588235294117645
sg8
F0.51515151515151514
sg9
F3.5151515151515151
sg10
F75
sg11
F0.060606060606060608
ssg12
S'shipyards, on the railways, at the docks, on the sea, in every labor that'
p2150
sg14
g15
sg16
I33456
sg17
F0.38744398192637075
sg18
g19
sba(ipassage
Passage
p2151
(dp2152
g4
I33605
sg5
(dp2153
g7
F3.75
sg8
F0.54838709677419351
sg9
F3.903225806451613
sg10
F55.5
sg11
F0.032258064516129031
ssg12
S'was needed to sustain the battle lines, men have vied with each other to do'
p2154
sg14
g15
sg16
I33530
sg17
F0.28906529008481746
sg18
g19
sba(ipassage
Passage
p2155
(dp2156
g4
I33679
sg5
(dp2157
g7
F3.3529411764705883
sg8
F0.48484848484848486
sg9
F3.6666666666666665
sg10
F55.5
sg11
F0
ssg12
S'their part and do it well. They can look any man-at-arms in the face, and'
p2158
sg14
g15
sg16
I33606
sg17
F0.32067560449213067
sg18
g19
sba(ipassage
Passage
p2159
(dp2160
g4
I33751
sg5
(dp2161
g7
F3.4230769230769229
sg8
F0.44
sg9
F3.9199999999999999
sg10
F36
sg11
F0
ssg12
S'say, We also strove to win and gave the best that was in us to make our'
p2162
sg14
g15
sg16
I33680
sg17
F0.34825131142584653
sg18
g19
sba(ipassage
Passage
p2163
(dp2164
g4
I33792
sg5
(dp2165
g7
F4.25
sg8
F0.42857142857142855
sg9
F4.2857142857142856
sg10
F36
sg11
F0
ssg12
S'fleets and armies sure of their triumph!'
p2166
sg14
g15
sg16
I33752
sg17
F0.39809827857176494
sg18
g19
sba(ipassage
Passage
p2167
(dp2168
g4
I33792
sg5
(dp2169
g7
F4.384615384615385
sg8
F0.41666666666666669
sg9
F3.4166666666666665
sg10
F52
sg11
F0
ssg12
S''
sg14
g15
sg16
I33792
sg17
F0.3253649523297506
sg18
g19
sba(ipassage
Passage
p2170
(dp2171
g4
I33860
sg5
(dp2172
g7
F5.1739130434782608
sg8
F0.40909090909090912
sg9
F4.2272727272727275
sg10
F68
sg11
F0
ssg12
S'And what shall we say of the women,-of their instant intelligence,'
p2173
sg14
g15
sg16
I33794
sg17
F0.57587338174963021
sg18
g19
sba(ipassage
Passage
p2174
(dp2175
g4
I33933
sg5
(dp2176
g7
F5.5454545454545459
sg8
F0.42857142857142855
sg9
F4.0476190476190474
sg10
F68
sg11
F0.047619047619047616
ssg12
S'quickening every task that they touched; their capacity for organization'
p2177
sg14
g15
sg16
I33861
sg17
F0.49636756730647513
sg18
g19
sba(ipassage
Passage
p2178
(dp2179
g4
I34002
sg5
(dp2180
g7
F5.4545454545454541
sg8
F0.42857142857142855
sg9
F4.4285714285714288
sg10
F68
sg11
F0.047619047619047616
ssg12
S'and cooperation, which gave their action discipline and enhanced the'
p2181
sg14
g15
sg16
I33934
sg17
F0.52133038326781866
sg18
g19
sba(ipassage
Passage
p2182
(dp2183
g4
I34073
sg5
(dp2184
g7
F5.3043478260869561
sg8
F0.5
sg9
F4.6363636363636367
sg10
F68
sg11
F0
ssg12
S'effectiveness of everything they attempted; their aptitude at tasks to'
p2185
sg14
g15
sg16
I34003
sg17
F0.56421698696171052
sg18
g19
sba(ipassage
Passage
p2186
(dp2187
g4
I34145
sg5
(dp2188
g7
F4.4074074074074074
sg8
F0.57692307692307687
sg9
F4.2692307692307692
sg10
F38.5
sg11
F0
ssg12
S'which they had never before set their hands; their utter self-sacrifice'
p2189
sg14
g15
sg16
I34074
sg17
F0.30659678579878685
sg18
g19
sba(ipassage
Passage
p2190
(dp2191
g4
I34217
sg5
(dp2192
g7
F4.1071428571428568
sg8
F0.55555555555555558
sg9
F4
sg10
F29.666666666666668
sg11
F0.037037037037037035
ssg12
S'alike in what they did and in what they gave? Their contribution to the'
p2193
sg14
g15
sg16
I34146
sg17
F0.31727866482172512
sg18
g19
sba(ipassage
Passage
p2194
(dp2195
g4
I34287
sg5
(dp2196
g7
F4.882352941176471
sg8
F0.375
sg9
F4.75
sg10
F10.5
sg11
F0.0625
ssg12
S'great result is beyond appraisal. They have added a new lustre to the'
p2197
sg14
g15
sg16
I34218
sg17
F0.5188463176571414
sg18
g19
sba(ipassage
Passage
p2198
(dp2199
g4
I34317
sg5
(dp2200
g7
F6.5
sg8
F0.33333333333333331
sg9
F4.666666666666667
sg10
F12
sg11
F0
ssg12
S'annals of American womanhood.'
p2201
sg14
g15
sg16
I34288
sg17
F0.6324087317557372
sg18
g19
sba(ipassage
Passage
p2202
(dp2203
g4
I34317
sg5
(dp2204
g7
F3.8235294117647061
sg8
F0.5625
sg9
F3.5
sg10
F27
sg11
F0
ssg12
S''
sg14
g15
sg16
I34317
sg17
F0.28810208184002173
sg18
g19
sba(ipassage
Passage
p2205
(dp2206
g4
I34389
sg5
(dp2207
g7
F4.25
sg8
F0.55555555555555558
sg9
F4.2222222222222223
sg10
F42
sg11
F0
ssg12
S'The least tribute we can pay them is to make them the equals of men in'
p2208
sg14
g15
sg16
I34319
sg17
F0.27506028526142279
sg18
g19
sba(ipassage
Passage
p2209
(dp2210
g4
I34465
sg5
(dp2211
g7
F5
sg8
F0.58333333333333337
sg9
F4.041666666666667
sg10
F42
sg11
F0.041666666666666664
ssg12
S'political rights as they have proved themselves their equals in every field'
p2212
sg14
g15
sg16
I34390
sg17
F0.38781914729278882
sg18
g19
sba(ipassage
Passage
p2213
(dp2214
g4
I34538
sg5
(dp2215
g7
F5.125
sg8
F0.39130434782608697
sg9
F4.5652173913043477
sg10
F30
sg11
F0
ssg12
S'of practical work they have entered, whether for themselves or for their'
p2216
sg14
g15
sg16
I34466
sg17
F0.71296540827860777
sg18
g19
sba(ipassage
Passage
p2217
(dp2218
g4
I34611
sg5
(dp2219
g7
F5.208333333333333
sg8
F0.34782608695652173
sg9
F4.9130434782608692
sg10
F39
sg11
F0
ssg12
S'country. These great days of completed achievement would be sadly marred'
p2220
sg14
g15
sg16
I34539
sg17
F0.87763907044538969
sg18
g19
sba(ipassage
Passage
p2221
(dp2222
g4
I34687
sg5
(dp2223
g7
F4.6296296296296298
sg8
F0.53846153846153844
sg9
F4.0769230769230766
sg10
F37.5
sg11
F0
ssg12
S'were we to omit that act of justice. Besides the immense practical services'
p2224
sg14
g15
sg16
I34612
sg17
F0.29716696362035216
sg18
g19
sba(ipassage
Passage
p2225
(dp2226
g4
I34763
sg5
(dp2227
g7
F5
sg8
F0.58333333333333337
sg9
F3.875
sg10
F57
sg11
F0
ssg12
S'they have rendered the women of the country have been the moving spirits in'
p2228
sg14
g15
sg16
I34688
sg17
F0.34618673891799673
sg18
g19
sba(ipassage
Passage
p2229
(dp2230
g4
I34837
sg5
(dp2231
g7
F5.166666666666667
sg8
F0.43478260869565216
sg9
F4.0434782608695654
sg10
F57
sg11
F0
ssg12
S'the systematic economies by which our people have voluntarily assisted to'
p2232
sg14
g15
sg16
I34764
sg17
F0.50667746474140951
sg18
g19
sba(ipassage
Passage
p2233
(dp2234
g4
I34911
sg5
(dp2235
g7
F4.5384615384615383
sg8
F0.47999999999999998
sg9
F3.7599999999999998
sg10
F57
sg11
F0.040000000000000001
ssg12
S'supply the suffering peoples of the world and the armies upon every front'
p2236
sg14
g15
sg16
I34838
sg17
F0.34179752101964389
sg18
g19
sba(ipassage
Passage
p2237
(dp2238
g4
I34981
sg5
(dp2239
g7
F4.068965517241379
sg8
F0.4642857142857143
sg9
F4.2857142857142856
sg10
F45
sg11
F0.035714285714285712
ssg12
S'with food and everything else that we had that might serve the common'
p2240
sg14
g15
sg16
I34912
sg17
F0.35555859027887404
sg18
g19
sba(ipassage
Passage
p2241
(dp2242
g4
I35057
sg5
(dp2243
g7
F3.6363636363636362
sg8
F0.59375
sg9
F3.71875
sg10
F45
sg11
F0
ssg12
S'cause. The details of such a story can never be fully written, but we carry'
p2244
sg14
g15
sg16
I34982
sg17
F0.28581118365970481
sg18
g19
sba(ipassage
Passage
p2245
(dp2246
g4
I35133
sg5
(dp2247
g7
F3.5555555555555554
sg8
F0.6470588235294118
sg9
F3.6470588235294117
sg10
F33
sg11
F0
ssg12
S'them at our hearts and thank God that we can say that we are the kinsmen of'
p2248
sg14
g15
sg16
I35058
sg17
F0.31739327991233585
sg18
g19
sba(ipassage
Passage
p2249
(dp2250
g4
I35139
sg5
(dp2251
g7
F4.1333333333333337
sg8
F0.5714285714285714
sg9
F3.5714285714285716
sg10
F24
sg11
F0
ssg12
S''
sg14
g15
sg16
I35139
sg17
F0.28140181446861856
sg18
g19
sba(ipassage
Passage
p2252
(dp2253
g4
I35211
sg5
(dp2254
g7
F3.8620689655172415
sg8
F0.5357142857142857
sg9
F3.5714285714285716
sg10
F37.5
sg11
F0
ssg12
S'And now we are sure of the great triumph for which every sacrifice was'
p2255
sg14
g15
sg16
I35141
sg17
F0.26009697372370588
sg18
g19
sba(ipassage
Passage
p2256
(dp2257
g4
I35279
sg5
(dp2258
g7
F3.9655172413793105
sg8
F0.4642857142857143
sg9
F3.3928571428571428
sg10
F37.5
sg11
F0
ssg12
S'made. It has come, come in its completeness, and with the pride and'
p2259
sg14
g15
sg16
I35212
sg17
F0.28804081511210061
sg18
g19
sba(ipassage
Passage
p2260
(dp2261
g4
I35352
sg5
(dp2262
g7
F4.96
sg8
F0.41666666666666669
sg9
F3.9583333333333335
sg10
F60
sg11
F0
ssg12
S'inspiration of these days of achievement quick within us, we turn to the'
p2263
sg14
g15
sg16
I35280
sg17
F0.46820121251880253
sg18
g19
sba(ipassage
Passage
p2264
(dp2265
g4
I35427
sg5
(dp2266
g7
F5.208333333333333
sg8
F0.34782608695652173
sg9
F4.3043478260869561
sg10
F60
sg11
F0
ssg12
S'tasks of peace again,-a peace secure against the violence of irresponsible'
p2267
sg14
g15
sg16
I35353
sg17
F0.68010056371428773
sg18
g19
sba(ipassage
Passage
p2268
(dp2269
g4
I35500
sg5
(dp2270
g7
F4.8571428571428568
sg8
F0.34999999999999998
sg9
F4.1500000000000004
sg10
F60
sg11
F0
ssg12
S'monarchs and ambitious military coteries and made ready for a new order,'
p2271
sg14
g15
sg16
I35428
sg17
F0.58056616321545707
sg18
g19
sba(ipassage
Passage
p2272
(dp2273
g4
I35549
sg5
(dp2274
g7
F5.125
sg8
F0.2857142857142857
sg9
F4.7142857142857144
sg10
F60
sg11
F0
ssg12
S'for new foundations of justice and fair dealing.'
p2275
sg14
g15
sg16
I35501
sg17
F0.7829197116716663
sg18
g19
sba(ipassage
Passage
p2276
(dp2277
g4
I35549
sg5
(dp2278
g7
F4.333333333333333
sg8
F0.6428571428571429
sg9
F3.4285714285714284
sg10
F48
sg11
F0
ssg12
S''
sg14
g15
sg16
I35549
sg17
F0.29121129918637739
sg18
g19
sba(ipassage
Passage
p2279
(dp2280
g4
I35621
sg5
(dp2281
g7
F3.8333333333333335
sg8
F0.68965517241379315
sg9
F3.3448275862068964
sg10
F36
sg11
F0
ssg12
S'We are about to give order and organization to this peace not only for'
p2282
sg14
g15
sg16
I35551
sg17
F0.32317857381325932
sg18
g19
sba(ipassage
Passage
p2283
(dp2284
g4
I35694
sg5
(dp2285
g7
F3.870967741935484
sg8
F0.53333333333333333
sg9
F3.4333333333333331
sg10
F24
sg11
F0.033333333333333333
ssg12
S'ourselves but for the other peoples of the world as well, so far as they'
p2286
sg14
g15
sg16
I35622
sg17
F0.30982378825736429
sg18
g19
sba(ipassage
Passage
p2287
(dp2288
g4
I35770
sg5
(dp2289
g7
F4.4285714285714288
sg8
F0.25925925925925924
sg9
F4.4444444444444446
sg10
F28.666666666666668
sg11
F0.037037037037037035
ssg12
S'will suffer us to serve them. It is international justice that we seek, not'
p2290
sg14
g15
sg16
I35695
sg17
F0.54611662556411389
sg18
g19
sba(ipassage
Passage
p2291
(dp2292
g4
I35844
sg5
(dp2293
g7
F4
sg8
F0.27586206896551724
sg9
F4.0344827586206895
sg10
F25
sg11
F0
ssg12
S'domestic safety merely. Our thoughts have dwelt of late upon Europe, upon'
p2294
sg14
g15
sg16
I35771
sg17
F0.49628112931699159
sg18
g19
sba(ipassage
Passage
p2295
(dp2296
g4
I35917
sg5
(dp2297
g7
F3.838709677419355
sg8
F0.5
sg9
F3.6000000000000001
sg10
F39.5
sg11
F0.033333333333333333
ssg12
S'Asia, upon the near and the far East, very little upon the acts of peace'
p2298
sg14
g15
sg16
I35845
sg17
F0.29195456662335495
sg18
g19
sba(ipassage
Passage
p2299
(dp2300
g4
I35992
sg5
(dp2301
g7
F4.25
sg8
F0.62962962962962965
sg9
F3.8148148148148149
sg10
F39.5
sg11
F0.037037037037037035
ssg12
S'and accommodation that wait to be performed at our own doors. While we are'
p2302
sg14
g15
sg16
I35918
sg17
F0.31396208204209597
sg18
g19
sba(ipassage
Passage
p2303
(dp2304
g4
I36064
sg5
(dp2305
g7
F4.8399999999999999
sg8
F0.625
sg9
F3.7083333333333335
sg10
F41
sg11
F0
ssg12
S'adjusting our relations with the rest of the world is it not of capital'
p2306
sg14
g15
sg16
I35993
sg17
F0.32298217420834863
sg18
g19
sba(ipassage
Passage
p2307
(dp2308
g4
I36138
sg5
(dp2309
g7
F5
sg8
F0.45833333333333331
sg9
F4.375
sg10
F34.5
sg11
F0
ssg12
S'importance that we should clear away all grounds of misunderstanding with'
p2310
sg14
g15
sg16
I36065
sg17
F0.53732473223238442
sg18
g19
sba(ipassage
Passage
p2311
(dp2312
g4
I36213
sg5
(dp2313
g7
F4.1379310344827589
sg8
F0.5
sg9
F4
sg10
F34.5
sg11
F0.035714285714285712
ssg12
S'our immediate neighbors and give proof of the friendship we really feel? I'
p2314
sg14
g15
sg16
I36139
sg17
F0.31264174727230443
sg18
g19
sba(ipassage
Passage
p2315
(dp2316
g4
I36286
sg5
(dp2317
g7
F4.5769230769230766
sg8
F0.64000000000000001
sg9
F3.52
sg10
F28
sg11
F0.040000000000000001
ssg12
S'hope that the members of the Senate will permit me to speak once more of'
p2318
sg14
g15
sg16
I36214
sg17
F0.34455802567391469
sg18
g19
sba(ipassage
Passage
p2319
(dp2320
g4
I36358
sg5
(dp2321
g7
F5.2608695652173916
sg8
F0.40909090909090912
sg9
F4.6363636363636367
sg10
F21.5
sg11
F0
ssg12
S'the unratified treaty of friendship and adjustment with the Republic of'
p2322
sg14
g15
sg16
I36287
sg17
F0.6812634622466166
sg18
g19
sba(ipassage
Passage
p2323
(dp2324
g4
I36430
sg5
(dp2325
g7
F4.25
sg8
F0.44444444444444442
sg9
F3.925925925925926
sg10
F29
sg11
F0.07407407407407407
ssg12
S'Colombia. I very earnestly urge upon them an early and favorable action'
p2326
sg14
g15
sg16
I36359
sg17
F0.43922827524261876
sg18
g19
sba(ipassage
Passage
p2327
(dp2328
g4
I36503
sg5
(dp2329
g7
F3.625
sg8
F0.64516129032258063
sg9
F3.5806451612903225
sg10
F29.5
sg11
F0.064516129032258063
ssg12
S'upon that vital matter. I believe that they will feel, with me, that the'
p2330
sg14
g15
sg16
I36431
sg17
F0.38780937014639699
sg18
g19
sba(ipassage
Passage
p2331
(dp2332
g4
I36576
sg5
(dp2333
g7
F3.6774193548387095
sg8
F0.69999999999999996
sg9
F3.6333333333333333
sg10
F44
sg11
F0
ssg12
S'stage of affairs is now set for such action as will be not only just but'
p2334
sg14
g15
sg16
I36504
sg17
F0.32573081306215435
sg18
g19
sba(ipassage
Passage
p2335
(dp2336
g4
I36648
sg5
(dp2337
g7
F4.0625
sg8
F0.59999999999999998
sg9
F3.6000000000000001
sg10
F44
sg11
F0
ssg12
S'generous and in the spirit of the new age upon which we have so happily'
p2338
sg14
g15
sg16
I36577
sg17
F0.25814793356703775
sg18
g19
sba(ipassage
Passage
p2339
(dp2340
g4
I36657
sg5
(dp2341
g7
F4.5333333333333332
sg8
F0.5
sg9
F4.2857142857142856
sg10
F33.5
sg11
F0
ssg12
S''
sg14
g15
sg16
I36657
sg17
F0.35726611174926137
sg18
g19
sba(ipassage
Passage
p2342
(dp2343
g4
I36732
sg5
(dp2344
g7
F4.7692307692307692
sg8
F0.47999999999999998
sg9
F4.0800000000000001
sg10
F26.5
sg11
F0
ssg12
S'So far as our domestic affairs are concerned the problem of our return to'
p2345
sg14
g15
sg16
I36659
sg17
F0.39360487463490773
sg18
g19
sba(ipassage
Passage
p2346
(dp2347
g4
I36808
sg5
(dp2348
g7
F4.3928571428571432
sg8
F0.55555555555555558
sg9
F4.1851851851851851
sg10
F26.5
sg11
F0
ssg12
S'peace is a problem of economic and industrial readjustment. That problem is'
p2349
sg14
g15
sg16
I36733
sg17
F0.31491505994853614
sg18
g19
sba(ipassage
Passage
p2350
(dp2351
g4
I36883
sg5
(dp2352
g7
F4.2142857142857144
sg8
F0.55555555555555558
sg9
F4.1851851851851851
sg10
F21.5
sg11
F0.037037037037037035
ssg12
S'less serious for us than it may turn out too he for the nations which have'
p2353
sg14
g15
sg16
I36809
sg17
F0.34817967503564268
sg18
g19
sba(ipassage
Passage
p2354
(dp2355
g4
I36954
sg5
(dp2356
g7
F4.2142857142857144
sg8
F0.44444444444444442
sg9
F3.8148148148148149
sg10
F21.666666666666668
sg11
F0.037037037037037035
ssg12
S'suffered the disarrangements and the losses of war longer than we. Our'
p2357
sg14
g15
sg16
I36884
sg17
F0.35882201929047119
sg18
g19
sba(ipassage
Passage
p2358
(dp2359
g4
I37027
sg5
(dp2360
g7
F4.2857142857142856
sg8
F0.40740740740740738
sg9
F3.8148148148148149
sg10
F17.5
sg11
F0
ssg12
S'people, moreover, do not wait to be coached and led. They know their own'
p2361
sg14
g15
sg16
I36955
sg17
F0.38737748781262571
sg18
g19
sba(ipassage
Passage
p2362
(dp2363
g4
I37098
sg5
(dp2364
g7
F4.9199999999999999
sg8
F0.33333333333333331
sg9
F3.9583333333333335
sg10
F25
sg11
F0
ssg12
S'business, are quick and resourceful at every readjustment, definite in'
p2365
sg14
g15
sg16
I37028
sg17
F0.55721738966453338
sg18
g19
sba(ipassage
Passage
p2366
(dp2367
g4
I37172
sg5
(dp2368
g7
F5.04
sg8
F0.33333333333333331
sg9
F4.833333333333333
sg10
F25
sg11
F0
ssg12
S'purpose, and self-reliant in action. Any leading strings we might seek to'
p2369
sg14
g15
sg16
I37099
sg17
F0.77702689732678754
sg18
g19
sba(ipassage
Passage
p2370
(dp2371
g4
I37248
sg5
(dp2372
g7
F4.25
sg8
F0.59259259259259256
sg9
F4.2962962962962967
sg10
F27.5
sg11
F0
ssg12
S'put them in would speedily become hopelessly tangled because they would pay'
p2373
sg14
g15
sg16
I37173
sg17
F0.32744800470127544
sg18
g19
sba(ipassage
Passage
p2374
(dp2375
g4
I37319
sg5
(dp2376
g7
F4.2592592592592595
sg8
F0.61538461538461542
sg9
F3.8846153846153846
sg10
F27.5
sg11
F0
ssg12
S'no attention to them and go their own way. All that we can do as their'
p2377
sg14
g15
sg16
I37249
sg17
F0.29286394656324982
sg18
g19
sba(ipassage
Passage
p2378
(dp2379
g4
I37390
sg5
(dp2380
g7
F4.25
sg8
F0.51851851851851849
sg9
F3.8148148148148149
sg10
F42.5
sg11
F0.037037037037037035
ssg12
S'legislative and executive servants is to mediate the process of change'
p2381
sg14
g15
sg16
I37320
sg17
F0.2964374903194601
sg18
g19
sba(ipassage
Passage
p2382
(dp2383
g4
I37464
sg5
(dp2384
g7
F4
sg8
F0.51851851851851849
sg9
F3.925925925925926
sg10
F42.5
sg11
F0
ssg12
S'here, there, and elsewhere as we may. I have heard much counsel as to the'
p2385
sg14
g15
sg16
I37391
sg17
F0.23434562226007113
sg18
g19
sba(ipassage
Passage
p2386
(dp2387
g4
I37528
sg5
(dp2388
g7
F4.541666666666667
sg8
F0.52173913043478259
sg9
F4.4347826086956523
sg10
F58
sg11
F0.043478260869565216
ssg12
S'plans that should be formed and personally conducted to a happy'
p2389
sg14
g15
sg16
I37465
sg17
F0.40228777575875185
sg18
g19
sba(ipassage
Passage
p2390
(dp2391
g4
I37596
sg5
(dp2392
g7
F4.384615384615385
sg8
F0.40000000000000002
sg9
F4.5599999999999996
sg10
F58
sg11
F0.040000000000000001
ssg12
S'consummation, but from no quarter have I seen any general scheme of'
p2393
sg14
g15
sg16
I37529
sg17
F0.47040817946976682
sg18
g19
sba(ipassage
Passage
p2394
(dp2395
g4
I37665
sg5
(dp2396
g7
F5.083333333333333
sg8
F0.30434782608695654
sg9
F5
sg10
F58
sg11
F0
ssg12
S'"reconstruction" emerge which I thought it likely we could force our'
p2397
sg14
g15
sg16
I37597
sg17
F0.81897936630319823
sg18
g19
sba(ipassage
Passage
p2398
(dp2399
g4
I37740
sg5
(dp2400
g7
F5.9230769230769234
sg8
F0.33333333333333331
sg9
F4.916666666666667
sg10
F58
sg11
F0
ssg12
S'spirited business men and self-reliant laborers to accept with due pliancy'
p2401
sg14
g15
sg16
I37666
sg17
F0.72437535741923853
sg18
g19
sba(ipassage
Passage
p2402
(dp2403
g4
I37755
sg5
(dp2404
g7
F6.5
sg8
F0
sg9
F8
sg10
F58
sg11
F0
ssg12
S'and obedience.'
p2405
sg14
g15
sg16
I37741
sg17
F0.58171835993290699
sg18
g19
sba.